(dp1
S'output'
p2
S"<type 'exceptions.AttributeError'> 'DAL' object has no attribute 'ratings'"
p3
sS'layer'
p4
S'/home/vikramahuja/web2py/applications/QuestionAnswer/controllers/default.py'
p5
sS'code'
p6
S'# -*- coding: utf-8 -*-\n# this file is released under public domain and you can use without limitations\n\n#########################################################################\n## This is a samples controller\n## - index is the default action of any application\n## - user is required for authentication and authorization\n## - download is for downloading files uploaded in the db (does streaming)\n## - call exposes all registered services (none by default)\n#########################################################################\n\n\ndef user():\n    """\n    exposes:\n    http://..../[app]/default/user/login\n    http://..../[app]/default/user/logout\n    http://..../[app]/default/user/register\n    http://..../[app]/default/user/profile\n    http://..../[app]/default/user/retrieve_password\n    http://..../[app]/default/user/change_password\n    use @auth.requires_login()\n        @auth.requires_membership(\'group name\')\n        @auth.requires_permission(\'read\',\'table name\',record_id)\n    to decorate functions that need access control\n    """\n    \n    return dict(form=auth())\n\n\ndef download():\n\treturn response.download(request, db)\n\n\ndef call():\n    """\n    exposes services. for example:\n    http://..../[app]/default/call/jsonrpc\n    decorate with @services.jsonrpc the functions to expose\n    supports xml, json, xmlrpc, jsonrpc, amfrpc, rss, csv\n    """\n    return service()\n\n\n@auth.requires_signature()\ndef data():\n    """\n    http://..../[app]/default/data/tables\n    http://..../[app]/default/data/create/[table]\n    http://..../[app]/default/data/read/[table]/[id]\n    http://..../[app]/default/data/update/[table]/[id]\n    http://..../[app]/default/data/delete/[table]/[id]\n    http://..../[app]/default/data/select/[table]\n    http://..../[app]/default/data/search/[table]\n    but URLs must be signed, i.e. linked with\n      A(\'table\',_href=URL(\'data/tables\',user_signature=True))\n    or with the signed load operator\n      LOAD(\'default\',\'data.load\',args=\'tables\',ajax=True,user_signature=True)\n    """\n    return dict(form=crud())\n\nimport datetime\nimport re\n#the admin username is vikram.ahuja@students.iiit.ac.in \n#and the password is 1234\n#the password of every other user is 1234\n\n\n\ndef index():\n\n#\tuser=User(me)\n\n\treturn locals()\n\n\n\ndef index3():\n\tresponse.flash=\'Are you sure you are the admin?\tBecause I Do not Think You Are The ONE.\'\n\treturn locals()\n\n\n@auth.requires_login()\ndef addadmin():\n\tform=SQLFORM(db.admins)\n        \n\n\tif form.process().accepted:\n\t\tresponse.flash= \'Form Accepted\'\n\t\tredirect(URL(\'index2\'))\n\telif form.errors:\n\t\tresponse.flash=\'Form has errors\'\n\telse:\n\t\tresponse.flash=\'Please Fill the Form\'\n\treturn dict(form=form)\n\n@auth.requires_login()\ndef addtopics():\n\tform=SQLFORM(db.classify)\n\tif form.process().accepted:\n\t\tresponse.flash= \'Form Accepted\'\n\t\tredirect(URL(\'index2\'))\n\telif form.errors:\n\t\tresponse.flash=\'Form has errors\'\n\telse:   \n\t        response.flash=\'Please Fill the Form\'\n\n\treturn dict(form=form)\n\n@auth.requires_login()\ndef addexpert():\n        form=SQLFORM(db.expert)\n        if form.process().accepted:\n\t        response.flash= \'Form Accepted\'\n\t        redirect(URL(\'index2\'))\n\telif form.errors:\n\t        response.flash=\'Form has errors\'\n\telse:\n\t        response.flash=\'Please Fill the Form\'\n\treturn dict(form=form)\n\n\n@auth.requires_login()\ndef index1():\n\tuser=User(me)\n\tprint user.id\n\tprint db.admins.name\n\ta=db(db.admins.name==user.id).select()\n\tif len(a)!=0:\n\t\tredirect(URL(\'index2\'))\n\telse:\n\t\tredirect(URL(\'index3\'))\n\n\t\t\t\n\treturn locals()\n\n\n\n@auth.requires_login()\ndef index2():\n\tgrid = SQLFORM.grid(db.post)\n\treturn locals()\n\n\n\n@auth.requires_login()\ndef alladmin():\n\t result=db(db.post.id>0).select(db.post.title,db.post.posted_on,db.post.posted_by,db.post.classification,db.post.id,orderby=~db.post.posted_on)\n\t return dict(result=result)\n\n\n\n\n@auth.requires_login()\ndef adminquestion():\n\tthis_page = db.post(request.args(0)) or redirect(URL(\'index\'))\n\tdb.post.id.default = this_page.id\n\tdb.answer.answer_id.default=this_page.id\n\tform = crud.create(db.answer) if auth.user else "Login to Answer to this Question"\n\n\tpageposts = db(db.post.id==this_page.id).select(db.post.title,db.post.body,db.post.id,db.post.posted_by)\n\tpageanswer = db(db.answer.answer_id==this_page.id).select(db.answer.posted_by,db.answer.posted_on,db.answer.answer)\n\n\n\n\t#   LIKES    \n\n\tpost = db.post(request.args(0)) or redirect(URL(\'index\'))\n\tdb.liked.post_id.default = post.id\n\tcrud.messages.submit_button = \'Like me\'\n\n\tform1 = crud.create(db.liked,message=\'You like this question\',next=URL(args=post.id)) if auth.user else "Login to Like this Question"\n\tlikes = db(db.liked.post_id==post.id).select()\n\n\n\n\t#   DISLIKES    \n\n\tpost1 = db.post(request.args(0)) or redirect(URL(\'index\'))\n\tdb.disliked.post_id.default = post1.id\n\tcrud.messages.submit_button = \'Dislike me\'\n\tform2 = crud.create(db.disliked,message=\'You dislike this question\',next=URL(args=post1.id)) if auth.user else "Login to Dislike this Question"\n\tdislikes = db(db.disliked.post_id==post1.id).select()\n\n\n\treturn dict(project=this_page, posts=pageposts,answer=pageanswer,form=form,form1=form1,likes=likes,form2=form2,dislikes=dislikes)\n\t\t\n\n\n\n\n\ndef all():\n\n\t\n\tresult=db(db.post.id>0).select(db.post.title,db.post.posted_on,db.post.posted_by,db.post.classification,db.post.id,orderby=~db.post.posted_on)\n\n\treturn dict(result=result)\n\n\n\n\n@auth.requires_login()\ndef mywall():\n\tuser = User(me)\n\tresult=db(db.post.posted_by==user.id).select(db.post.title,db.post.posted_on,db.post.posted_by,db.post.classification,db.post.id,orderby=~db.post.posted_on)\n\treturn dict(result=result)\n\n\n\n\n@auth.requires_login()\ndef mywall1():\n\tuser = User(me)\n\tresult=db((db.answer.answer_id==db.post.id)&(db.answer.posted_by==user.id)).select(db.post.title,db.post.id,db.post.classification,db.post.posted_on,db.post.posted_by,orderby=db.answer.id)\n\t\n\t#result1=db((db.answer.answer_id==db.post.id)&(db.answer.posted_by==user.id)).select(db.answer.posted_on)\n\treturn dict(result=result)\n\n\n\n@auth.requires_login()\ndef mypage():\n\n\tuser=User(me)\n\tresult=db(db.auth_user.id==user.id).select()\n\tresult1=db((db.auth_user.id==user.id)&(db.image.uploaded_by==user.id)).select(db.image.files,orderby=~db.image.uploaded_on)\n\n\treturn dict(result=result,result1=result1)\n\n\n@auth.requires_login()\ndef insertimage():\n\tform=SQLFORM(db.image)\n\t#Check if uploaded file is either JPEG or PNG:\n\t\n\tif form.process().accepted:\n\t\tresponse.flash= \'Form Accepted\'\n\t\tredirect(URL(\'mypage\'))\n\n\telif form.errors:\n\t\tresponse.flash=\'Form has errors\'\n\telse:\n\t\tresponse.flash=\'Please Fill the Form\'\n\treturn dict(form=form)\n\n\ndef find2():\n\n\tresult=db(db.post.id>0).select()\n\treturn dict(result=result)\n\n\n\n\n\ndef question():\n\tuser=User(me)\t         \n\tform3=\'\'\n\tform5=\'\'\n\tthis_page = db.post(request.args(0)) or redirect(URL(\'index\'))\n\tthis_page1=db.answer(request.args(0))\n\tdb.ratings.postid.default=this_page.id\n\tdb.answerratings.postid.default=this_page.id\n\n\tdb.post.id.default = this_page.id\n\tdb(db.post.id == this_page.id).update(\n\t\tcounter = db.post.counter + 1)\n\t\n\tpageanswer = db(db.answer.answer_id==this_page.id).select(db.answer.posted_by,db.answer.posted_on,db.answer.answer,db.answer.id)\n\n\tfor post in pageanswer:\n\t\tdb.answerratings.answerid.default=post.id\n\t\t\t\t\t\n\n\tif auth.user:\t\n\t\tdb.answerratings.userids.default=auth.user.id\n\t\tform5 = SQLFORM(db.answerratings)\n\t\tif form5.accepts(request.vars, session):\n\t\t\tsession.flash = \'Thanks for rating this question\'\n\t\t\tredirect(URL(\'question\',args=request.args))\n\t\t\t\n\n\n\t\n\tdb.answer.answer_id.default=this_page.id\n\tform4 = crud.create(db.answer) if auth.user else "Login to Answer to this Question"\n\tif auth.user:\n\t\tdb.ratings.userids.default=auth.user.id\n\t\tform3 = SQLFORM(db.ratings)\n\t\tif form3.accepts(request.vars, session):\n\t\t\tsession.flash = \'Thanks for rating this question\'\n\t\t\t\n\t\t\tredirect(URL(\'question\',args=request.args))\n\n\tpageposts = db(db.post.id==this_page.id).select(db.post.title,db.post.body,db.post.id,db.post.posted_by,db.post.counter)\t   \n\tpageanswer = db(db.answer.answer_id==this_page.id).select(db.answer.posted_by,db.answer.posted_on,db.answer.answer,db.answer.id)\n\t\n\n\t\t\n\t #   LIKES    \n\t    \n\tpost = db.post(request.args(0)) or redirect(URL(\'index\'))\n\tdb.liked.post_id.default = post.id\t\n\tcrud.messages.submit_button = \'Like me\'\n\t\n\tform1 = crud.create(db.liked,message=\'You like this question\',next=URL(args=post.id)) if auth.user else "Login to Like this Question"\n\tlikes = db(db.liked.post_id==post.id).select()\n\n\n\n\n   \t#   DISLIKES    \n\n        post1 = db.post(request.args(0)) or redirect(URL(\'index\'))\n\tdb.disliked.post_id.default = post1.id\n\tcrud.messages.submit_button = \'Dislike me\'\n\tform2 = crud.create(db.disliked,message=\'You dislike this question\',next=URL(args=post1.id)) if auth.user else "Login to Dislike this Question"\n\tdislikes = db(db.disliked.post_id==post1.id).select()\n\n\t\n\t\n\t\n\n\treturn dict(form4=form4,form5=form5,form3=form3,project=this_page, posts=pageposts,answer=pageanswer,form1=form1,likes=likes,form2=form2,dislikes=dislikes)\n\n\n\n\n\ndef answerquestion():\n\tuser=User(me)\n\tthis_page=db.post(request.args(0))\n\tdb.post.id.default = this_page.id\n\tdb.answer.answer_id.default=this_page.id\n\tform=\'\'\n\tif auth.user:\n\t\tform = crud.create(db.answer)\n\t\tdb.answer.posted_by==user.id\n\telse:\n\t\tform=crud.create(db.answer)\n\t\tdb.answer.posted_by=="Anon"\n\treturn dict(form=form)\n\n\n@auth.requires_login()\ndef myquestion():\n\n\t  this_page1 = db.post(request.args(0)) or redirect(URL(\'index\'))\n\t  db.post.id.default = this_page1.id\n\n\t  db.answer.answer_id.default=this_page1.id\n\t  form4 = crud.create(db.answer) if auth.user else "Login to Answer to this Question"\n\t  pageposts = db(db.post.id==this_page1.id).select(db.post.title,db.post.body,db.post.id)\n\t  pageanswer = db(db.answer.answer_id==this_page1.id).select()\n\t  return dict(project=this_page1, posts=pageposts,answer=pageanswer,form4=form4)\n\n\n\n\n@auth.requires_login()\ndef myanswer():\n           this_page1 = db.post(request.args(0)) or redirect(URL(\'index\'))\n\t   db.post.id.default = this_page1.id\n           db.answer.answer_id.default=this_page1.id\n           pageposts = db(db.post.id==this_page1.id).select(db.post.title,db.post.body,db.post.id)\n           pageanswer = db(db.answer.answer_id==this_page1.id).select()\n           return dict(project=this_page1, posts=pageposts,answer=pageanswer)\n\n\n\n\n@auth.requires_login()\ndef ask():\n\tresponse.flash="Write the question"\n\tform=SQLFORM(db.post)\n\n\tif form.process().accepted:\n\t\tresponse.flash= \'Question Accepted\'\n\t\tredirect(URL(\'all\'))\n\telif form.errors:\n\t\tresponse.flash=\'Form has errors\'\n\telse:\n\t\tresponse.flash=\'Write the question\'\n\t\n\treturn dict(form=form)\n\t\n\n\n\n\n\ndef find1():\n\tsi=request.post_vars[\'si\']\n\ts=db(db.auth_user.first_name.like(\'%\'+si+\'%\')).select(db.auth_user.first_name,db.auth_user.id,db.auth_user.last_name)\n\n\tss=db(db.auth_user.last_name.like(\'%\'+si+\'%\')).select(db.auth_user.first_name,db.auth_user.id,db.auth_user.last_name)\n\treturn dict(s=s,ss=ss)\n\t\n\n\n\n\ndef find3():\n\tsi=request.post_vars[\'si\']\n\tif len(si)==0:\n\t\tredirect(URL(\'index\'))\n\tif si==\' \':\n\t\tredirect(URL(\'index\'))\n\t\n\tif si==\'  \':\n\t\tredirect(URL(\'index\'))\n\ts=db(db.post.title.like(\'%\'+si+\'%\')).select(db.post.title,db.post.classification,db.post.posted_by,db.post.id,db.post.posted_on,orderby=~db.post.posted_on)\n\tif len(s)==0:\t\n\t\tredirect(URL(\'index\'))\n\treturn dict(s=s)\n\n\n\n@auth.requires_login()\ndef edit():\n\t\n\tthis_page = db.post(request.args(0,cast=int)) or redirect(URL(\'index\'))\n\tform = SQLFORM(db.post, this_page).process(\n\t\t\tnext = URL(\'myquestion\',args=request.args))\n\treturn dict(form=form)\n\n\n\n\n\n@auth.requires_login()\ndef editadmin():\n\tthis_page = db.post(request.args(0,cast=int)) or redirect(URL(\'index\'))\n\tform = SQLFORM(db.post, this_page).process(\n   \t\t\tnext = URL(\'adminquestion\',args=request.args))\n\treturn dict(form=form)\n\n\n\n@auth.requires_login()\ndef deleteadmin():\n\tthis_page1 = db.post(request.args(0))\n\tdb.post.id.default = this_page1.id\n\n\tdb.answer.answer_id.default=this_page1.id\n\n\tpageposts = db(db.post.id==this_page1.id).delete()\n\tpageanswer = db(db.answer.answer_id==this_page1.id).delete()\n\tredirect(URL(\'alladmin\'))\n\treturn dict(project=this_page1, posts=pageposts,answer=pageanswer)\n\n\n\n\n\n@auth.requires_login()\ndef delete():\n\n\tthis_page1 = db.post(request.args(0)) \n        db.post.id.default = this_page1.id\n\n\tdb.answer.answer_id.default=this_page1.id\n\n\tpageposts = db(db.post.id==this_page1.id).delete()\n\tpageanswer = db(db.answer.answer_id==this_page1.id).delete()\n\tredirect(URL(\'mywall\'))\n\treturn dict(project=this_page1, posts=pageposts,answer=pageanswer)\n\n\n@auth.requires_login()\ndef delete1():\n\n\tthis_page1 = db.post(request.args(0)) \n        db.post.id.default = this_page1.id\n\n\tdb.answer.answer_id.default=this_page1.id\n\n\tpageposts = db(db.post.id==this_page1.id).delete()\n\tpageanswer = db(db.answer.answer_id==this_page1.id).delete()\n\tsession.flash=\'Deleted\'\n\tredirect(URL(\'topicquestion\'))\n\n\treturn dict(project=this_page1, posts=pageposts,answer=pageanswer)\n\n\n\n@auth.requires_login()\ndef addfavorite():\n\t user = User(me)\n\t this_page1 = db.post(request.args(0))\n\t \n\t s=db((db.favorite.post_id==this_page1.id)&(db.favorite.posted_by==user.id)).select(db.favorite.post_id)\n\t print \'s=\',s\n\t if len(s)==0:\n \t \tdb.favorite.insert(posted_by=user.id,post_id=this_page1.id)\n \t \tsession.flash=\'Added to your Favorites List\'\n\t else:\n\t\tsession.flash=\'Already in your Favorites List\'\n\t redirect(URL(\'all\'))\n\t return locals() \n \n\n\n\n@auth.requires_login()\ndef printfavoriteall():\n\tuser = User(me)\n\tresult=db((db.favorite.posted_by==user.id)&(db.favorite.post_id==db.post.id)).select(db.post.title,db.post.posted_on,db.post.posted_by,db.post.classification,db.post.id,orderby=~db.favorite.post_id)\n\treturn dict(result=result)\n\n\n\n\n\n\n@auth.requires_login()\ndef feedback():\n\tform=SQLFORM(db.feedback)\n\tform.vars.userid=auth.user_id\n\tif form.accepts(request.vars, session):\n\t\tsession.flash = \'Feedback Submited\'\n\t\tredirect(URL(\'index\'))\n\treturn(dict(form=form))\n\n\n\n\n@auth.requires_login()\ndef reportabuse():\n\tform=SQLFORM(db.reportabuse)\n\tform.vars.userid=auth.user_id\n\tif form.accepts(request.vars, session):\n\t\tsession.flash = \'Submited\'\n\t\tredirect(URL(r=request,f="index"))\n\treturn(dict(form=form))\n\n\n\n\n\n\n@auth.requires_login()\ndef showfriends():\n\tuser=User(me)\n\tthis_page = db.auth_user(request.args(0)) or redirect(URL(\'index\'))\n\tdb.auth_user.id.default = this_page.id\n#\tdb.answer.answer_id.default=this_page1.id\n\tif user.id==this_page.id:\n\t\tredirect(URL(\'mypage\'))\n\telse:\n\t\tuserpage = db(db.auth_user.id==this_page.id).select()\n\t\tuserpost=db(db.post.posted_by==this_page.id).select()\n\t\tuserimage=db(db.image.uploaded_by==this_page.id).select(db.image.files,orderby=~db.image.uploaded_on)\n#\tpageanswer = db(db.answer.answer_id==this_page1.id).select()\n\treturn dict(project=this_page, userpage=userpage,userpost=userpost,userimage=userimage)\n\n\ndef showtopic():\n\tuser=User(me)\n\tthis_page=db.classify(request.args(0))\n\tdb.classify.id.default=this_page.id\n\tusers=db((db.classify.id==this_page.id)&(db.post.classification==this_page.id)).select(db.post.title,db.post.posted_on,db.post.posted_by,db.post.id,orderby=~db.post.posted_on)\n#\tif user.id==db.admins.id:\n#\tdeleteoption=db((db.classify.id==this_page.id)&db(db.post.classification)).delete()\n\treturn dict(users=users,project=this_page)\n\n@auth.requires_login()\ndef showtopicadmin():\n\tuser=User(me)\n\tthis_page=db.classify(request.args(0))\n\tdb.classify.id.default=this_page.id\n\tusers=db((db.classify.id==this_page.id)&(db.post.classification==this_page.id)).select(db.post.title,db.post.posted_on,db.post.posted_by,db.post.id,orderby=~db.post.posted_on)\n\treturn dict(users=users,project=this_page)\n\n\n\ndef topicquestion():\n\ttopic=db(db.classify.id>0).select()\n\treturn dict(topic=topic)\n\ndef about():\n\treturn locals()\n\n\n\n@auth.requires_login()\ndef deletequestion():\n\tthis_page1 = db.post(request.args(0))\n\tdb.post.id.default = this_page1.id\n\tdb.answer.answer_id.default=this_page1.id\n\tpageposts = db(db.post.id==this_page1.id).delete()\n\tpageanswer = db(db.answer.answer_id==this_page1.id).delete()\n\tredirect(URL(\'topicquestion\'))\n\treturn dict(project=this_page1, posts=pageposts,answer=pageanswer)\n\n\n\n\ndef unanswered():\n\t\n\tqwe=db(db.post.id>0).select(db.post.id,db.post.title,db.post.posted_by,db.post.posted_on,db.post.classification,orderby=~db.post.posted_on)\n\t\n\tqwe1=db(db.answer.id>0).select(db.answer.answer_id)\t\n\t\t\n\treturn dict(qwe=qwe,qwe1=qwe1)\n\n@auth.requires_login()\ndef message():\n\tuser=User(me)\n\tmessage=db(db.privatemessage.posted_to==user.id).select(db.privatemessage.id,db.privatemessage.messages,db.privatemessage.posted_by,db.privatemessage.posted_on,db.privatemessage.title,orderby=~db.privatemessage.posted_on)\n\treturn dict(message=message)\n\n@auth.requires_login()\ndef createmessage():\n\tuser=User(me)\t\n\n\tresponse.flash="Write the question"\n        form=SQLFORM(db.privatemessage)\n\t \n\tif form.process().accepted:\n\t                response.flash= \'Message Sent\'\n\t                redirect(URL(\'message\'))\n\telif form.errors:\n\t                response.flash=\'Form has errors\'\n\telse:\n\t                response.flash=\'Write the message\'\n\t\n\n\treturn dict(form=form)\n\n@auth.requires_login()\ndef deletemessage():\n\tthis_page1 = db.privatemessage(request.args(0))\n\tdb.privatemessage.id.default = this_page1.id\n\tmessage = db(db.privatemessage.id==this_page1.id).delete()\n\t\n\tredirect(URL(\'message\'))\n\tresponse.flash=\'Deleted\'\n\treturn dict(project=this_page1, message=message)\n\n\n\n@auth.requires_login()\ndef completemessage():\n\tthis_page1 = db.privatemessage(request.args(0))\n\tdb.privatemessage.id.default = this_page1.id\n#        pageposts = db(db.post.id==this_page1.id).delete()\n\tmessage=db(db.privatemessage.id==this_page1.id).select(db.privatemessage.messages)\n\n\treturn dict(project=this_page1,message=message)\n\n@auth.requires_login()\ndef viewfeedback():\n\tfeedback=db(db.feedback.id>0).select(db.feedback.feedback,db.feedback.posted_on,db.feedback.userid,orderby=~db.feedback.posted_on)\n\treturn dict(feedback=feedback)\n\n\n\n\n\nresponse._vars=response._caller(question)\n'
p7
sS'snapshot'
p8
(dp9
S'exception'
p10
(dp11
S'__hash__'
p12
S"<method-wrapper '__hash__' of exceptions.AttributeError object>"
p13
sS'__setattr__'
p14
S"<method-wrapper '__setattr__' of exceptions.AttributeError object>"
p15
sS'__reduce_ex__'
p16
S'<built-in method __reduce_ex__ of exceptions.AttributeError object>'
p17
sS'__getslice__'
p18
S"<method-wrapper '__getslice__' of exceptions.AttributeError object>"
p19
sS'__getitem__'
p20
S"<method-wrapper '__getitem__' of exceptions.AttributeError object>"
p21
sS'__setstate__'
p22
S'<built-in method __setstate__ of exceptions.AttributeError object>'
p23
sS'args'
p24
S'("\'DAL\' object has no attribute \'ratings\'",)'
p25
sS'__reduce__'
p26
S'<built-in method __reduce__ of exceptions.AttributeError object>'
p27
sS'__str__'
p28
S"<method-wrapper '__str__' of exceptions.AttributeError object>"
p29
sS'__format__'
p30
S'<built-in method __format__ of exceptions.AttributeError object>'
p31
sS'__getattribute__'
p32
S"<method-wrapper '__getattribute__' of exceptions.AttributeError object>"
p33
sS'__class__'
p34
S"<type 'exceptions.AttributeError'>"
p35
sS'__unicode__'
p36
S'<built-in method __unicode__ of exceptions.AttributeError object>'
p37
sS'__delattr__'
p38
S"<method-wrapper '__delattr__' of exceptions.AttributeError object>"
p39
sS'__subclasshook__'
p40
S'<built-in method __subclasshook__ of type object>'
p41
sS'__repr__'
p42
S"<method-wrapper '__repr__' of exceptions.AttributeError object>"
p43
sS'__dict__'
p44
S'{}'
p45
sS'__sizeof__'
p46
S'<built-in method __sizeof__ of exceptions.AttributeError object>'
p47
sS'__doc__'
p48
S"'Attribute not found.'"
p49
sS'__init__'
p50
S"<method-wrapper '__init__' of exceptions.AttributeError object>"
p51
sS'__new__'
p52
S'<built-in method __new__ of type object>'
p53
ssS'evalue'
p54
S"'DAL' object has no attribute 'ratings'"
p55
sS'request'
p56
cgluon.html
XML_unpickle
p57
(S's\x18[\x00\x00<div><table><tr><td style="font-weight:bold;vertical-align:top;">ajax</td><td style="vertical-align:top;">:</td><td><div>False</div></td></tr><tr><td style="font-weight:bold;vertical-align:top;">application</td><td style="vertical-align:top;">:</td><td><div>QuestionAnswer</div></td></tr><tr><td style="font-weight:bold;vertical-align:top;">args</td><td style="vertical-align:top;">:</td><td><div><table><tr><td><div>3</div></td></tr></table></div></td></tr><tr><td style="font-weight:bold;vertical-align:top;">cid</td><td style="vertical-align:top;">:</td><td><div>None</div></td></tr><tr><td style="font-weight:bold;vertical-align:top;">client</td><td style="vertical-align:top;">:</td><td><div>14.139.82.6</div></td></tr><tr><td style="font-weight:bold;vertical-align:top;">controller</td><td style="vertical-align:top;">:</td><td><div>default</div></td></tr><tr><td style="font-weight:bold;vertical-align:top;">cookies</td><td style="vertical-align:top;">:</td><td><div><table><tr><td style="font-weight:bold;vertical-align:top;">countrytabs</td><td style="vertical-align:top;">:</td><td><div>1<table><tr><td style="font-weight:bold;vertical-align:top;">comment</td><td style="vertical-align:top;">:</td><td><div></div></td></tr><tr><td style="font-weight:bold;vertical-align:top;">domain</td><td style="vertical-align:top;">:</td><td><div></div></td></tr><tr><td style="font-weight:bold;vertical-align:top;">expires</td><td style="vertical-align:top;">:</td><td><div></div></td></tr><tr><td style="font-weight:bold;vertical-align:top;">httponly</td><td style="vertical-align:top;">:</td><td><div></div></td></tr><tr><td style="font-weight:bold;vertical-align:top;">max-age</td><td style="vertical-align:top;">:</td><td><div></div></td></tr><tr><td style="font-weight:bold;vertical-align:top;">path</td><td style="vertical-align:top;">:</td><td><div></div></td></tr><tr><td style="font-weight:bold;vertical-align:top;">secure</td><td style="vertical-align:top;">:</td><td><div></div></td></tr><tr><td style="font-weight:bold;vertical-align:top;">version</td><td style="vertical-align:top;">:</td><td><div></div></td></tr></table></div></td></tr><tr><td style="font-weight:bold;vertical-align:top;">session_id_admin</td><td style="vertical-align:top;">:</td><td><div>10.1.40.15-c440981b-d45c-443d-85be-558bf5ef015e<table><tr><td style="font-weight:bold;vertical-align:top;">comment</td><td style="vertical-align:top;">:</td><td><div></div></td></tr><tr><td style="font-weight:bold;vertical-align:top;">domain</td><td style="vertical-align:top;">:</td><td><div></div></td></tr><tr><td style="font-weight:bold;vertical-align:top;">expires</td><td style="vertical-align:top;">:</td><td><div></div></td></tr><tr><td style="font-weight:bold;vertical-align:top;">httponly</td><td style="vertical-align:top;">:</td><td><div></div></td></tr><tr><td style="font-weight:bold;vertical-align:top;">max-age</td><td style="vertical-align:top;">:</td><td><div></div></td></tr><tr><td style="font-weight:bold;vertical-align:top;">path</td><td style="vertical-align:top;">:</td><td><div></div></td></tr><tr><td style="font-weight:bold;vertical-align:top;">secure</td><td style="vertical-align:top;">:</td><td><div></div></td></tr><tr><td style="font-weight:bold;vertical-align:top;">version</td><td style="vertical-align:top;">:</td><td><div></div></td></tr></table></div></td></tr><tr><td style="font-weight:bold;vertical-align:top;">session_id_questionanswer</td><td style="vertical-align:top;">:</td><td><div>14.139.82.6-4811bb23-dcd2-4b8d-ab15-e5a7d7181d9e<table><tr><td style="font-weight:bold;vertical-align:top;">comment</td><td style="vertical-align:top;">:</td><td><div></div></td></tr><tr><td style="font-weight:bold;vertical-align:top;">domain</td><td style="vertical-align:top;">:</td><td><div></div></td></tr><tr><td style="font-weight:bold;vertical-align:top;">expires</td><td style="vertical-align:top;">:</td><td><div></div></td></tr><tr><td style="font-weight:bold;vertical-align:top;">httponly</td><td style="vertical-align:top;">:</td><td><div></div></td></tr><tr><td style="font-weight:bold;vertical-align:top;">max-age</td><td style="vertical-align:top;">:</td><td><div></div></td></tr><tr><td style="font-weight:bold;vertical-align:top;">path</td><td style="vertical-align:top;">:</td><td><div></div></td></tr><tr><td style="font-weight:bold;vertical-align:top;">secure</td><td style="vertical-align:top;">:</td><td><div></div></td></tr><tr><td style="font-weight:bold;vertical-align:top;">version</td><td style="vertical-align:top;">:</td><td><div></div></td></tr></table></div></td></tr><tr><td style="font-weight:bold;vertical-align:top;">session_id_welcome</td><td style="vertical-align:top;">:</td><td><div>10.1.40.15-383cdd81-ea28-4c8f-ac61-f348beefbed5<table><tr><td style="font-weight:bold;vertical-align:top;">comment</td><td style="vertical-align:top;">:</td><td><div></div></td></tr><tr><td style="font-weight:bold;vertical-align:top;">domain</td><td style="vertical-align:top;">:</td><td><div></div></td></tr><tr><td style="font-weight:bold;vertical-align:top;">expires</td><td style="vertical-align:top;">:</td><td><div></div></td></tr><tr><td style="font-weight:bold;vertical-align:top;">httponly</td><td style="vertical-align:top;">:</td><td><div></div></td></tr><tr><td style="font-weight:bold;vertical-align:top;">max-age</td><td style="vertical-align:top;">:</td><td><div></div></td></tr><tr><td style="font-weight:bold;vertical-align:top;">path</td><td style="vertical-align:top;">:</td><td><div></div></td></tr><tr><td style="font-weight:bold;vertical-align:top;">secure</td><td style="vertical-align:top;">:</td><td><div></div></td></tr><tr><td style="font-weight:bold;vertical-align:top;">version</td><td style="vertical-align:top;">:</td><td><div></div></td></tr></table></div></td></tr></table></div></td></tr><tr><td style="font-weight:bold;vertical-align:top;">env</td><td style="vertical-align:top;">:</td><td><div><table><tr><td style="font-weight:bold;vertical-align:top;">CONTENT_LENGTH</td><td style="vertical-align:top;">:</td><td><div></div></td></tr><tr><td style="font-weight:bold;vertical-align:top;">CONTENT_TYPE</td><td style="vertical-align:top;">:</td><td><div></div></td></tr><tr><td style="font-weight:bold;vertical-align:top;">DOCUMENT_ROOT</td><td style="vertical-align:top;">:</td><td><div>/usr/local/openresty/nginx/html</div></td></tr><tr><td style="font-weight:bold;vertical-align:top;">HTTPS</td><td style="vertical-align:top;">:</td><td><div>on</div></td></tr><tr><td style="font-weight:bold;vertical-align:top;">HTTP_ACCEPT</td><td style="vertical-align:top;">:</td><td><div>text/html,application/xhtml+xml,application/xml;q=0.9,*/*;q=0.8</div></td></tr><tr><td style="font-weight:bold;vertical-align:top;">HTTP_ACCEPT_ENCODING</td><td style="vertical-align:top;">:</td><td><div>gzip, deflate</div></td></tr><tr><td style="font-weight:bold;vertical-align:top;">HTTP_ACCEPT_LANGUAGE</td><td style="vertical-align:top;">:</td><td><div>en-US,en;q=0.5</div></td></tr><tr><td style="font-weight:bold;vertical-align:top;">HTTP_CONNECTION</td><td style="vertical-align:top;">:</td><td><div>close</div></td></tr><tr><td style="font-weight:bold;vertical-align:top;">HTTP_COOKIE</td><td style="vertical-align:top;">:</td><td><div>_ga=GA1.2.1189342101.1426965359; _gat=1; session_id_welcome=10.1.40.15-383cdd81-ea28-4c8f-ac61-f348beefbed5; session_id_admin=10.1.40.15-c440981b-d45c-443d-85be-558bf5ef015e; session_id_questionanswer=14.139.82.6-4811bb23-dcd2-4b8d-ab15-e5a7d7181d9e; countrytabs=1</div></td></tr><tr><td style="font-weight:bold;vertical-align:top;">HTTP_HOST</td><td style="vertical-align:top;">:</td><td><div>vikramahuja.pythonanywhere.com</div></td></tr><tr><td style="font-weight:bold;vertical-align:top;">HTTP_REFERER</td><td style="vertical-align:top;">:</td><td><div>https://vikramahuja.pythonanywhere.com/QuestionAnswer/default/ask.html</div></td></tr><tr><td style="font-weight:bold;vertical-align:top;">HTTP_USER_AGENT</td><td style="vertical-align:top;">:</td><td><div>Mozilla/5.0 (Macintosh; Intel Mac OS X 10.10; rv:36.0) Gecko/20100101 Firefox/36.0</div></td></tr><tr><td style="font-weight:bold;vertical-align:top;">HTTP_X_FORWARDED_FOR</td><td style="vertical-align:top;">:</td><td><div>14.139.82.6</div></td></tr><tr><td style="font-weight:bold;vertical-align:top;">HTTP_X_REAL_IP</td><td style="vertical-align:top;">:</td><td><div>14.139.82.6</div></td></tr><tr><td style="font-weight:bold;vertical-align:top;">PATH_INFO</td><td style="vertical-align:top;">:</td><td><div>/QuestionAnswer/default/question/3</div></td></tr><tr><td style="font-weight:bold;vertical-align:top;">QUERY_STRING</td><td style="vertical-align:top;">:</td><td><div></div></td></tr><tr><td style="font-weight:bold;vertical-align:top;">REMOTE_ADDR</td><td style="vertical-align:top;">:</td><td><div>10.157.107.232</div></td></tr><tr><td style="font-weight:bold;vertical-align:top;">REMOTE_PORT</td><td style="vertical-align:top;">:</td><td><div>51083</div></td></tr><tr><td style="font-weight:bold;vertical-align:top;">REQUEST_METHOD</td><td style="vertical-align:top;">:</td><td><div>GET</div></td></tr><tr><td style="font-weight:bold;vertical-align:top;">REQUEST_URI</td><td style="vertical-align:top;">:</td><td><div>/QuestionAnswer/default/question/3</div></td></tr><tr><td style="font-weight:bold;vertical-align:top;">SCRIPT_NAME</td><td style="vertical-align:top;">:</td><td><div></div></td></tr><tr><td style="font-weight:bold;vertical-align:top;">SERVER_NAME</td><td style="vertical-align:top;">:</td><td><div>vikramahuja.pythonanywhere.com</div></td></tr><tr><td style="font-weight:bold;vertical-align:top;">SERVER_PORT</td><td style="vertical-align:top;">:</td><td><div>443</div></td></tr><tr><td style="font-weight:bold;vertical-align:top;">SERVER_PROTOCOL</td><td style="vertical-align:top;">:</td><td><div>HTTP/1.1</div></td></tr><tr><td style="font-weight:bold;vertical-align:top;">app_folders</td><td style="vertical-align:top;">:</td><td><div>set([&#x27;/home/vikramahuja/web2py/applications/welcome/&#x27;, &#x27;/home/vikramahuja/web2py/applications/admin/&#x27;, &#x27;/home/vikramahuja/web2py/applications/QuestionAnswer/&#x27;])</div></td></tr><tr><td style="font-weight:bold;vertical-align:top;">applications_parent</td><td style="vertical-align:top;">:</td><td><div>/home/vikramahuja/web2py</div></td></tr><tr><td style="font-weight:bold;vertical-align:top;">content_length</td><td style="vertical-align:top;">:</td><td><div></div></td></tr><tr><td style="font-weight:bold;vertical-align:top;">content_type</td><td style="vertical-align:top;">:</td><td><div></div></td></tr><tr><td style="font-weight:bold;vertical-align:top;">db_sessions</td><td style="vertical-align:top;">:</td><td><div>set([])</div></td></tr><tr><td style="font-weight:bold;vertical-align:top;">debugging</td><td style="vertical-align:top;">:</td><td><div>False</div></td></tr><tr><td style="font-weight:bold;vertical-align:top;">document_root</td><td style="vertical-align:top;">:</td><td><div>/usr/local/openresty/nginx/html</div></td></tr><tr><td style="font-weight:bold;vertical-align:top;">gluon_parent</td><td style="vertical-align:top;">:</td><td><div>/home/vikramahuja/web2py</div></td></tr><tr><td style="font-weight:bold;vertical-align:top;">http_accept</td><td style="vertical-align:top;">:</td><td><div>text/html,application/xhtml+xml,application/xml;q=0.9,*/*;q=0.8</div></td></tr><tr><td style="font-weight:bold;vertical-align:top;">http_accept_encoding</td><td style="vertical-align:top;">:</td><td><div>gzip, deflate</div></td></tr><tr><td style="font-weight:bold;vertical-align:top;">http_accept_language</td><td style="vertical-align:top;">:</td><td><div>en-US,en;q=0.5</div></td></tr><tr><td style="font-weight:bold;vertical-align:top;">http_connection</td><td style="vertical-align:top;">:</td><td><div>close</div></td></tr><tr><td style="font-weight:bold;vertical-align:top;">http_cookie</td><td style="vertical-align:top;">:</td><td><div>_ga=GA1.2.1189342101.1426965359; _gat=1; session_id_welcome=10.1.40.15-383cdd81-ea28-4c8f-ac61-f348beefbed5; session_id_admin=10.1.40.15-c440981b-d45c-443d-85be-558bf5ef015e; session_id_questionanswer=14.139.82.6-4811bb23-dcd2-4b8d-ab15-e5a7d7181d9e; countrytabs=1</div></td></tr><tr><td style="font-weight:bold;vertical-align:top;">http_host</td><td style="vertical-align:top;">:</td><td><div>vikramahuja.pythonanywhere.com</div></td></tr><tr><td style="font-weight:bold;vertical-align:top;">http_referer</td><td style="vertical-align:top;">:</td><td><div>https://vikramahuja.pythonanywhere.com/QuestionAnswer/default/ask.html</div></td></tr><tr><td style="font-weight:bold;vertical-align:top;">http_user_agent</td><td style="vertical-align:top;">:</td><td><div>Mozilla/5.0 (Macintosh; Intel Mac OS X 10.10; rv:36.0) Gecko/20100101 Firefox/36.0</div></td></tr><tr><td style="font-weight:bold;vertical-align:top;">http_x_forwarded_for</td><td style="vertical-align:top;">:</td><td><div>14.139.82.6</div></td></tr><tr><td style="font-weight:bold;vertical-align:top;">http_x_real_ip</td><td style="vertical-align:top;">:</td><td><div>14.139.82.6</div></td></tr><tr><td style="font-weight:bold;vertical-align:top;">https</td><td style="vertical-align:top;">:</td><td><div>on</div></td></tr><tr><td style="font-weight:bold;vertical-align:top;">is_jython</td><td style="vertical-align:top;">:</td><td><div>False</div></td></tr><tr><td style="font-weight:bold;vertical-align:top;">is_pypy</td><td style="vertical-align:top;">:</td><td><div>False</div></td></tr><tr><td style="font-weight:bold;vertical-align:top;">is_source</td><td style="vertical-align:top;">:</td><td><div>True</div></td></tr><tr><td style="font-weight:bold;vertical-align:top;">local_hosts</td><td style="vertical-align:top;">:</td><td><div><table><tr><td><div>giles-liveweb1</div></td></tr><tr><td><div>::ffff:127.0.0.1</div></td></tr><tr><td><div>::1</div></td></tr><tr><td><div>50.19.109.98</div></td></tr><tr><td><div>localhost</div></td></tr><tr><td><div>127.0.0.1</div></td></tr><tr><td><div>vikramahuja.pythonanywhere.com</div></td></tr></table></div></td></tr><tr><td style="font-weight:bold;vertical-align:top;">path_info</td><td style="vertical-align:top;">:</td><td><div>/QuestionAnswer/default/question/3</div></td></tr><tr><td style="font-weight:bold;vertical-align:top;">query_string</td><td style="vertical-align:top;">:</td><td><div></div></td></tr><tr><td style="font-weight:bold;vertical-align:top;">remote_addr</td><td style="vertical-align:top;">:</td><td><div>10.157.107.232</div></td></tr><tr><td style="font-weight:bold;vertical-align:top;">remote_port</td><td style="vertical-align:top;">:</td><td><div>51083</div></td></tr><tr><td style="font-weight:bold;vertical-align:top;">request_method</td><td style="vertical-align:top;">:</td><td><div>GET</div></td></tr><tr><td style="font-weight:bold;vertical-align:top;">request_uri</td><td style="vertical-align:top;">:</td><td><div>/QuestionAnswer/default/question/3</div></td></tr><tr><td style="font-weight:bold;vertical-align:top;">script_name</td><td style="vertical-align:top;">:</td><td><div></div></td></tr><tr><td style="font-weight:bold;vertical-align:top;">server_name</td><td style="vertical-align:top;">:</td><td><div>vikramahuja.pythonanywhere.com</div></td></tr><tr><td style="font-weight:bold;vertical-align:top;">server_port</td><td style="vertical-align:top;">:</td><td><div>443</div></td></tr><tr><td style="font-weight:bold;vertical-align:top;">server_protocol</td><td style="vertical-align:top;">:</td><td><div>HTTP/1.1</div></td></tr><tr><td style="font-weight:bold;vertical-align:top;">uwsgi.node</td><td style="vertical-align:top;">:</td><td><div>giles-liveweb1</div></td></tr><tr><td style="font-weight:bold;vertical-align:top;">uwsgi.version</td><td style="vertical-align:top;">:</td><td><div>2.0.5.1</div></td></tr><tr><td style="font-weight:bold;vertical-align:top;">uwsgi_node</td><td style="vertical-align:top;">:</td><td><div>giles-liveweb1</div></td></tr><tr><td style="font-weight:bold;vertical-align:top;">uwsgi_version</td><td style="vertical-align:top;">:</td><td><div>2.0.5.1</div></td></tr><tr><td style="font-weight:bold;vertical-align:top;">web2py_path</td><td style="vertical-align:top;">:</td><td><div>/home/vikramahuja/web2py</div></td></tr><tr><td style="font-weight:bold;vertical-align:top;">web2py_version</td><td style="vertical-align:top;">:</td><td><div>2.7.4-stable+timestamp.2013.10.14.15.16.29</div></td></tr><tr><td style="font-weight:bold;vertical-align:top;">wsgi.errors</td><td style="vertical-align:top;">:</td><td><div>&lt;uwsgi_file__bin_user_wsgi_wrapper.ErrorLogFile object at 0x7f281f15e690&gt;</div></td></tr><tr><td style="font-weight:bold;vertical-align:top;">wsgi.file_wrapper</td><td style="vertical-align:top;">:</td><td><div>&lt;built-in function uwsgi_sendfile&gt;</div></td></tr><tr><td style="font-weight:bold;vertical-align:top;">wsgi.input</td><td style="vertical-align:top;">:</td><td><div>&lt;uwsgi._Input object at 0x7f2830c6cc90&gt;</div></td></tr><tr><td style="font-weight:bold;vertical-align:top;">wsgi.multiprocess</td><td style="vertical-align:top;">:</td><td><div>False</div></td></tr><tr><td style="font-weight:bold;vertical-align:top;">wsgi.multithread</td><td style="vertical-align:top;">:</td><td><div>False</div></td></tr><tr><td style="font-weight:bold;vertical-align:top;">wsgi.run_once</td><td style="vertical-align:top;">:</td><td><div>False</div></td></tr><tr><td style="font-weight:bold;vertical-align:top;">wsgi.url_scheme</td><td style="vertical-align:top;">:</td><td><div>https</div></td></tr><tr><td style="font-weight:bold;vertical-align:top;">wsgi.version</td><td style="vertical-align:top;">:</td><td><div><table><tr><td><div>1</div></td></tr><tr><td><div>0</div></td></tr></table></div></td></tr><tr><td style="font-weight:bold;vertical-align:top;">wsgi_errors</td><td style="vertical-align:top;">:</td><td><div>&lt;uwsgi_file__bin_user_wsgi_wrapper.ErrorLogFile object at 0x7f281f15e690&gt;</div></td></tr><tr><td style="font-weight:bold;vertical-align:top;">wsgi_file_wrapper</td><td style="vertical-align:top;">:</td><td><div>&lt;built-in function uwsgi_sendfile&gt;</div></td></tr><tr><td style="font-weight:bold;vertical-align:top;">wsgi_input</td><td style="vertical-align:top;">:</td><td><div>&lt;uwsgi._Input object at 0x7f2830c6cc90&gt;</div></td></tr><tr><td style="font-weight:bold;vertical-align:top;">wsgi_multiprocess</td><td style="vertical-align:top;">:</td><td><div>False</div></td></tr><tr><td style="font-weight:bold;vertical-align:top;">wsgi_multithread</td><td style="vertical-align:top;">:</td><td><div>False</div></td></tr><tr><td style="font-weight:bold;vertical-align:top;">wsgi_run_once</td><td style="vertical-align:top;">:</td><td><div>False</div></td></tr><tr><td style="font-weight:bold;vertical-align:top;">wsgi_url_scheme</td><td style="vertical-align:top;">:</td><td><div>https</div></td></tr><tr><td style="font-weight:bold;vertical-align:top;">wsgi_version</td><td style="vertical-align:top;">:</td><td><div><table><tr><td><div>1</div></td></tr><tr><td><div>0</div></td></tr></table></div></td></tr></table></div></td></tr><tr><td style="font-weight:bold;vertical-align:top;">extension</td><td style="vertical-align:top;">:</td><td><div>html</div></td></tr><tr><td style="font-weight:bold;vertical-align:top;">folder</td><td style="vertical-align:top;">:</td><td><div>/home/vikramahuja/web2py/applications/QuestionAnswer/</div></td></tr><tr><td style="font-weight:bold;vertical-align:top;">function</td><td style="vertical-align:top;">:</td><td><div>question</div></td></tr><tr><td style="font-weight:bold;vertical-align:top;">global_settings</td><td style="vertical-align:top;">:</td><td><div><table><tr><td style="font-weight:bold;vertical-align:top;">app_folders</td><td style="vertical-align:top;">:</td><td><div>set([&#x27;/home/vikramahuja/web2py/applications/welcome/&#x27;, &#x27;/home/vikramahuja/web2py/applications/admin/&#x27;, &#x27;/home/vikramahuja/web2py/applications/QuestionAnswer/&#x27;])</div></td></tr><tr><td style="font-weight:bold;vertical-align:top;">applications_parent</td><td style="vertical-align:top;">:</td><td><div>/home/vikramahuja/web2py</div></td></tr><tr><td style="font-weight:bold;vertical-align:top;">db_sessions</td><td style="vertical-align:top;">:</td><td><div>set([])</div></td></tr><tr><td style="font-weight:bold;vertical-align:top;">debugging</td><td style="vertical-align:top;">:</td><td><div>False</div></td></tr><tr><td style="font-weight:bold;vertical-align:top;">gluon_parent</td><td style="vertical-align:top;">:</td><td><div>/home/vikramahuja/web2py</div></td></tr><tr><td style="font-weight:bold;vertical-align:top;">is_jython</td><td style="vertical-align:top;">:</td><td><div>False</div></td></tr><tr><td style="font-weight:bold;vertical-align:top;">is_pypy</td><td style="vertical-align:top;">:</td><td><div>False</div></td></tr><tr><td style="font-weight:bold;vertical-align:top;">is_source</td><td style="vertical-align:top;">:</td><td><div>True</div></td></tr><tr><td style="font-weight:bold;vertical-align:top;">local_hosts</td><td style="vertical-align:top;">:</td><td><div><table><tr><td><div>giles-liveweb1</div></td></tr><tr><td><div>::ffff:127.0.0.1</div></td></tr><tr><td><div>::1</div></td></tr><tr><td><div>50.19.109.98</div></td></tr><tr><td><div>localhost</div></td></tr><tr><td><div>127.0.0.1</div></td></tr><tr><td><div>vikramahuja.pythonanywhere.com</div></td></tr></table></div></td></tr><tr><td style="font-weight:bold;vertical-align:top;">web2py_version</td><td style="vertical-align:top;">:</td><td><div>2.7.4-stable+timestamp.2013.10.14.15.16.29</div></td></tr></table></div></td></tr><tr><td style="font-weight:bold;vertical-align:top;">is_https</td><td style="vertical-align:top;">:</td><td><div>True</div></td></tr><tr><td style="font-weight:bold;vertical-align:top;">is_local</td><td style="vertical-align:top;">:</td><td><div>False</div></td></tr><tr><td style="font-weight:bold;vertical-align:top;">is_restful</td><td style="vertical-align:top;">:</td><td><div>False</div></td></tr><tr><td style="font-weight:bold;vertical-align:top;">now</td><td style="vertical-align:top;">:</td><td><div>datetime.datetime(2015, 3, 21, 19, 20, 40, 612416)</div></td></tr><tr><td style="font-weight:bold;vertical-align:top;">raw_args</td><td style="vertical-align:top;">:</td><td><div>3</div></td></tr><tr><td style="font-weight:bold;vertical-align:top;">raw_extension</td><td style="vertical-align:top;">:</td><td><div>None</div></td></tr><tr><td style="font-weight:bold;vertical-align:top;">url</td><td style="vertical-align:top;">:</td><td><div>/QuestionAnswer/default/question/3</div></td></tr><tr><td style="font-weight:bold;vertical-align:top;">utcnow</td><td style="vertical-align:top;">:</td><td><div>datetime.datetime(2015, 3, 21, 19, 20, 40, 612433)</div></td></tr><tr><td style="font-weight:bold;vertical-align:top;">uuid</td><td style="vertical-align:top;">:</td><td><div>QuestionAnswer/14.139.82.6.2015-03-21.19-20-40.3dbaa1a8-6ad2-4748-ab5c-ac721bc66c15</div></td></tr><tr><td style="font-weight:bold;vertical-align:top;">wsgi</td><td style="vertical-align:top;">:</td><td><div>&lt;gluon.main.LazyWSGI object at 0x7f2815c14850&gt;</div></td></tr></table></div>'
tRp58
sS'frames'
p59
(lp60
(dp61
S'file'
p62
S'/home/vikramahuja/web2py/gluon/restricted.py'
p63
sS'dump'
p64
(dp65
S'environment'
p66
S"{'A': <class 'gluon.html.A'>, 'ANY_OF': <class 'gluon.validators.ANY_OF'>, 'Auth': <class 'gluon.tools.Auth'>, 'B': <class 'gluon.html.B'>, 'BEAUTIFY': <class 'gluon.html.BEAUTIFY'>, 'BODY': <class 'gluon.html.BODY'>, 'BR': <class 'gluon.html.BR'>, 'BUTTON': <class 'gluon.html.BUTTON'>, 'CAT': <class 'gluon.html.CAT'>, 'CENTER': <class 'gluon.html.CENTER'>, ...}"
p67
sS'ccode'
p68
S'<code object <module> at 0x7f2815c1acb0, file "/.../QuestionAnswer/controllers/default.py", line 13>'
p69
ssS'lnum'
p70
I217
sS'lines'
p71
(dp72
I212
S'    try:'
p73
sI213
S'        if isinstance(code, types.CodeType):'
p74
sI214
S'            ccode = code'
p75
sI215
S'        else:'
p76
sI216
S'            ccode = compile2(code, layer)'
p77
sI217
S'        exec ccode in environment'
p78
sI218
S'    except HTTP:'
p79
sI219
S'        raise'
p80
sI220
S'    except RestrictedError:'
p81
sI221
S'        # do not encapsulate (obfuscate) the original RestrictedError'
p82
ssS'call'
p83
S"(code='# -*- coding: utf-8 -*-\\n# this file is released ...)\\n\\n\\n\\n\\n\\nresponse._vars=response._caller(question)\\n', environment={'A': <class 'gluon.html.A'>, 'ANY_OF': <class 'gluon.validators.ANY_OF'>, 'Auth': <class 'gluon.tools.Auth'>, 'B': <class 'gluon.html.B'>, 'BEAUTIFY': <class 'gluon.html.BEAUTIFY'>, 'BODY': <class 'gluon.html.BODY'>, 'BR': <class 'gluon.html.BR'>, 'BUTTON': <class 'gluon.html.BUTTON'>, 'CAT': <class 'gluon.html.CAT'>, 'CENTER': <class 'gluon.html.CENTER'>, ...}, layer='/home/vikramahuja/web2py/applications/QuestionAnswer/controllers/default.py')"
p84
sS'func'
p85
S'restricted'
p86
sa(dp87
g62
S'/home/vikramahuja/web2py/applications/QuestionAnswer/controllers/default.py'
p88
sg64
(dp89
sg70
I662
sg71
(dp90
I651
S'\treturn dict(project=this_page1,message=message)'
p91
sI652
S''
sI653
S'@auth.requires_login()'
p92
sI654
S'def viewfeedback():'
p93
sI655
S'\tfeedback=db(db.feedback.id>0).select(db.feedback.feedback,db.feedback.posted_on,db.feedback.userid,orderby=~db.feedback.posted_on)'
p94
sI656
S'\treturn dict(feedback=feedback)'
p95
sI657
S''
sI658
S''
sI659
S''
sI660
S''
ssg83
S'()'
p96
sg85
S'<module>'
p97
sa(dp98
g62
S'/home/vikramahuja/web2py/gluon/globals.py'
p99
sg64
(dp100
S'self'
p101
S'undefined'
p102
sS'f'
S'<function question>'
p103
ssg70
I372
sg71
(dp104
I367
S'        self.menu = []             # used by the default view layout'
p105
sI368
S'        self.files = []            # used by web2py_ajax.html'
p106
sI369
S'        self.generic_patterns = []  # patterns to allow generic views'
p107
sI370
S"        self.delimiters = ('{{', '}}')"
p108
sI371
S'        self._vars = None'
p109
sI372
S'        self._caller = lambda f: f()'
p110
sI373
S'        self._view_environment = None'
p111
sI374
S'        self._custom_commit = None'
p112
sI375
S'        self._custom_rollback = None'
p113
sI376
S''
ssg83
S'(f=<function question>)'
p114
sg85
S'<lambda>'
p115
sa(dp116
g62
S'/home/vikramahuja/web2py/applications/QuestionAnswer/controllers/default.py'
p117
sg64
(dp118
S'global db'
p119
S'<DAL uri="sqlite://storage.sqlite">'
p120
sS'db.ratings'
p121
g102
sS'this_page.id'
p122
S'3L'
p123
sS'this_page'
p124
S"<Row {'body': 'teset', 'liked': 0L, 'classificat...on': datetime.datetime(2015, 3, 21, 19, 20, 32)}>"
p125
ssg70
I263
sg71
(dp126
I258
S'\tuser=User(me)'
p127
sI259
S"\tform3=''"
p128
sI260
S"\tform5=''"
p129
sI261
S"\tthis_page = db.post(request.args(0)) or redirect(URL('index'))"
p130
sI262
S'\tthis_page1=db.answer(request.args(0))'
p131
sI263
S'\tdb.ratings.postid.default=this_page.id'
p132
sI264
S'\tdb.answerratings.postid.default=this_page.id'
p133
sI265
S''
sI266
S'\tdb.post.id.default = this_page.id'
p134
sI267
S'\tdb(db.post.id == this_page.id).update('
p135
ssg83
S'()'
p136
sg85
S'question'
p137
sa(dp138
g62
S'/home/vikramahuja/web2py/gluon/dal.py'
p139
sg64
(dp140
S'self'
p141
S'<DAL uri="sqlite://storage.sqlite">'
p142
sS'global ogetattr'
p143
S"<slot wrapper '__getattribute__' of 'object' objects>"
p144
sS'key'
p145
S"'ratings'"
p146
ssg70
I8041
sg71
(dp147
I8036
S'    def __getattr__(self, key):'
p148
sI8037
S"        if ogetattr(self,'_lazy_tables') and \\"
p149
sI8038
S"                key in ogetattr(self,'_LAZY_TABLES'):"
p150
sI8039
S'            tablename, fields, args = self._LAZY_TABLES.pop(key)'
p151
sI8040
S'            return self.lazy_define_table(tablename,*fields,**args)'
p152
sI8041
S'        return ogetattr(self, key)'
p153
sI8042
S''
sI8043
S'    def __setitem__(self, key, value):'
p154
sI8044
S'        osetattr(self, str(key), value)'
p155
sI8045
S''
ssg83
S'(self=<DAL uri="sqlite://storage.sqlite">, key=\'ratings\')'
p156
sg85
S'__getattr__'
p157
sasS'pyver'
p158
S'Python 2.7.6: /usr/local/bin/uwsgi (prefix: /usr)'
p159
sS'session'
p160
g57
(S's\x88\t\x00\x00<div><table><tr><td style="font-weight:bold;vertical-align:top;">auth</td><td style="vertical-align:top;">:</td><td><div><table><tr><td style="font-weight:bold;vertical-align:top;">expiration</td><td style="vertical-align:top;">:</td><td><div>3600</div></td></tr><tr><td style="font-weight:bold;vertical-align:top;">hmac_key</td><td style="vertical-align:top;">:</td><td><div>9e627c41-50a4-483f-8abc-b1e6bfa202cb</div></td></tr><tr><td style="font-weight:bold;vertical-align:top;">last_visit</td><td style="vertical-align:top;">:</td><td><div>datetime.datetime(2015, 3, 21, 19, 20, 15, 564002)</div></td></tr><tr><td style="font-weight:bold;vertical-align:top;">user</td><td style="vertical-align:top;">:</td><td><div><table><tr><td style="font-weight:bold;vertical-align:top;">email</td><td style="vertical-align:top;">:</td><td><div>vikramahuja1001@gmail.com</div></td></tr><tr><td style="font-weight:bold;vertical-align:top;">first_name</td><td style="vertical-align:top;">:</td><td><div>Vikram</div></td></tr><tr><td style="font-weight:bold;vertical-align:top;">id</td><td style="vertical-align:top;">:</td><td><div>4L</div></td></tr><tr><td style="font-weight:bold;vertical-align:top;">last_name</td><td style="vertical-align:top;">:</td><td><div>Ahuja</div></td></tr><tr><td style="font-weight:bold;vertical-align:top;">registration_id</td><td style="vertical-align:top;">:</td><td><div></div></td></tr><tr><td style="font-weight:bold;vertical-align:top;">registration_key</td><td style="vertical-align:top;">:</td><td><div></div></td></tr><tr><td style="font-weight:bold;vertical-align:top;">reset_password_key</td><td style="vertical-align:top;">:</td><td><div></div></td></tr></table></div></td></tr><tr><td style="font-weight:bold;vertical-align:top;">user_groups</td><td style="vertical-align:top;">:</td><td><div><table><tr><td style="font-weight:bold;vertical-align:top;">4</td><td style="vertical-align:top;">:</td><td><div>user_4</div></td></tr></table></div></td></tr></table></div></td></tr><tr><td style="font-weight:bold;vertical-align:top;">flash</td><td style="vertical-align:top;">:</td><td><div>None</div></td></tr><tr><td style="font-weight:bold;vertical-align:top;">last_orderby</td><td style="vertical-align:top;">:</td><td><div>None</div></td></tr><tr><td style="font-weight:bold;vertical-align:top;">last_query</td><td style="vertical-align:top;">:</td><td><div>db.auth_user.id&gt;2</div></td></tr></table></div>'
tRp161
sS'etype'
p162
S"<type 'exceptions.AttributeError'>"
p163
sS'date'
p164
S'Sat Mar 21 19:20:40 2015'
p165
sS'response'
p166
g57
(S's\xd9\x1e\x00\x00<div><table><tr><td style="font-weight:bold;vertical-align:top;">body</td><td style="vertical-align:top;">:</td><td><div>&lt;cStringIO.StringO object at 0x7f28166d5fb8&gt;</div></td></tr><tr><td style="font-weight:bold;vertical-align:top;">cookies</td><td style="vertical-align:top;">:</td><td><div><table><tr><td style="font-weight:bold;vertical-align:top;">session_id_questionanswer</td><td style="vertical-align:top;">:</td><td><div>14.139.82.6-4811bb23-dcd2-4b8d-ab15-e5a7d7181d9e<table><tr><td style="font-weight:bold;vertical-align:top;">comment</td><td style="vertical-align:top;">:</td><td><div></div></td></tr><tr><td style="font-weight:bold;vertical-align:top;">domain</td><td style="vertical-align:top;">:</td><td><div></div></td></tr><tr><td style="font-weight:bold;vertical-align:top;">expires</td><td style="vertical-align:top;">:</td><td><div></div></td></tr><tr><td style="font-weight:bold;vertical-align:top;">httponly</td><td style="vertical-align:top;">:</td><td><div></div></td></tr><tr><td style="font-weight:bold;vertical-align:top;">max-age</td><td style="vertical-align:top;">:</td><td><div></div></td></tr><tr><td style="font-weight:bold;vertical-align:top;">path</td><td style="vertical-align:top;">:</td><td><div>/</div></td></tr><tr><td style="font-weight:bold;vertical-align:top;">secure</td><td style="vertical-align:top;">:</td><td><div></div></td></tr><tr><td style="font-weight:bold;vertical-align:top;">version</td><td style="vertical-align:top;">:</td><td><div></div></td></tr></table></div></td></tr></table></div></td></tr><tr><td style="font-weight:bold;vertical-align:top;">delimiters</td><td style="vertical-align:top;">:</td><td><div><table><tr><td><div>{{</div></td></tr><tr><td><div>}}</div></td></tr></table></div></td></tr><tr><td style="font-weight:bold;vertical-align:top;">files</td><td style="vertical-align:top;">:</td><td><div><table><tr><td><div>/QuestionAnswer/static/plugin_rating/jquery.rating.css</div></td></tr><tr><td><div>/QuestionAnswer/static/plugin_rating/jquery.rating.js</div></td></tr></table></div></td></tr><tr><td style="font-weight:bold;vertical-align:top;">flash</td><td style="vertical-align:top;">:</td><td><div></div></td></tr><tr><td style="font-weight:bold;vertical-align:top;">generic_patterns</td><td style="vertical-align:top;">:</td><td><div><table></table></div></td></tr><tr><td style="font-weight:bold;vertical-align:top;">google_analytics_id</td><td style="vertical-align:top;">:</td><td><div>None</div></td></tr><tr><td style="font-weight:bold;vertical-align:top;">headers</td><td style="vertical-align:top;">:</td><td><div><table><tr><td style="font-weight:bold;vertical-align:top;">X-Powered-By</td><td style="vertical-align:top;">:</td><td><div>web2py</div></td></tr></table></div></td></tr><tr><td style="font-weight:bold;vertical-align:top;">menu</td><td style="vertical-align:top;">:</td><td><div><table><tr><td><div><table><tr><td><div>Home</div></td></tr><tr><td><div>False</div></td></tr><tr><td><div>/QuestionAnswer/default/index</div></td></tr><tr><td><div><table></table></div></td></tr></table></div></td></tr><tr><td><div><table><tr><td><div>Wall</div></td></tr><tr><td><div>False</div></td></tr><tr><td><div>/QuestionAnswer/default/mypage</div></td></tr><tr><td><div><table></table></div></td></tr></table></div></td></tr><tr><td><div><table><tr><td><div>Messages</div></td></tr><tr><td><div>False</div></td></tr><tr><td><div>/QuestionAnswer/default/message</div></td></tr><tr><td><div><table></table></div></td></tr></table></div></td></tr><tr><td><div><table><tr><td><div>Questions by Topic</div></td></tr><tr><td><div>False</div></td></tr><tr><td><div>/QuestionAnswer/default/topicquestion</div></td></tr><tr><td><div><table></table></div></td></tr></table></div></td></tr><tr><td><div><table><tr><td><div>Admin Controls</div></td></tr><tr><td><div>False</div></td></tr><tr><td><div>/QuestionAnswer/default/index1</div></td></tr><tr><td><div><table></table></div></td></tr></table></div></td></tr></table></div></td></tr><tr><td style="font-weight:bold;vertical-align:top;">meta</td><td style="vertical-align:top;">:</td><td><div><table><tr><td style="font-weight:bold;vertical-align:top;">author</td><td style="vertical-align:top;">:</td><td><div>Your Name &lt;you@example.com&gt;</div></td></tr><tr><td style="font-weight:bold;vertical-align:top;">description</td><td style="vertical-align:top;">:</td><td><div>a cool new app</div></td></tr><tr><td style="font-weight:bold;vertical-align:top;">generator</td><td style="vertical-align:top;">:</td><td><div>Web2py Web Framework</div></td></tr><tr><td style="font-weight:bold;vertical-align:top;">keywords</td><td style="vertical-align:top;">:</td><td><div>web2py, python, framework</div></td></tr></table></div></td></tr><tr><td style="font-weight:bold;vertical-align:top;">models_to_run</td><td style="vertical-align:top;">:</td><td><div><table><tr><td><div>^\\w+\\.py$</div></td></tr><tr><td><div>^default/\\w+\\.py$</div></td></tr><tr><td><div>^default/question/\\w+\\.py$</div></td></tr></table></div></td></tr><tr><td style="font-weight:bold;vertical-align:top;">postprocessing</td><td style="vertical-align:top;">:</td><td><div><table></table></div></td></tr><tr><td style="font-weight:bold;vertical-align:top;">session_client</td><td style="vertical-align:top;">:</td><td><div>14.139.82.6</div></td></tr><tr><td style="font-weight:bold;vertical-align:top;">session_cookie_compression_level</td><td style="vertical-align:top;">:</td><td><div>None</div></td></tr><tr><td style="font-weight:bold;vertical-align:top;">session_cookie_expires</td><td style="vertical-align:top;">:</td><td><div>None</div></td></tr><tr><td style="font-weight:bold;vertical-align:top;">session_cookie_key</td><td style="vertical-align:top;">:</td><td><div>None</div></td></tr><tr><td style="font-weight:bold;vertical-align:top;">session_data_name</td><td style="vertical-align:top;">:</td><td><div>session_data_questionanswer</div></td></tr><tr><td style="font-weight:bold;vertical-align:top;">session_file</td><td style="vertical-align:top;">:</td><td><div>&lt;open file &#x27;/home/vikramahuja/web2py/applications/QuestionAnswer/sessions/14.139.82.6-4811bb23-dcd2-4b8d-ab15-e5a7d7181d9e&#x27;, mode &#x27;rb+&#x27; at 0x7f28165a5300&gt;</div></td></tr><tr><td style="font-weight:bold;vertical-align:top;">session_filename</td><td style="vertical-align:top;">:</td><td><div>/home/vikramahuja/web2py/applications/QuestionAnswer/sessions/14.139.82.6-4811bb23-dcd2-4b8d-ab15-e5a7d7181d9e</div></td></tr><tr><td style="font-weight:bold;vertical-align:top;">session_hash</td><td style="vertical-align:top;">:</td><td><div>7abd50804794451fcdc89d9e05b8dc32</div></td></tr><tr><td style="font-weight:bold;vertical-align:top;">session_id</td><td style="vertical-align:top;">:</td><td><div>14.139.82.6-4811bb23-dcd2-4b8d-ab15-e5a7d7181d9e</div></td></tr><tr><td style="font-weight:bold;vertical-align:top;">session_id_name</td><td style="vertical-align:top;">:</td><td><div>session_id_questionanswer</div></td></tr><tr><td style="font-weight:bold;vertical-align:top;">session_locked</td><td style="vertical-align:top;">:</td><td><div>True</div></td></tr><tr><td style="font-weight:bold;vertical-align:top;">session_masterapp</td><td style="vertical-align:top;">:</td><td><div>QuestionAnswer</div></td></tr><tr><td style="font-weight:bold;vertical-align:top;">session_new</td><td style="vertical-align:top;">:</td><td><div>False</div></td></tr><tr><td style="font-weight:bold;vertical-align:top;">session_storage_type</td><td style="vertical-align:top;">:</td><td><div>file</div></td></tr><tr><td style="font-weight:bold;vertical-align:top;">status</td><td style="vertical-align:top;">:</td><td><div>200</div></td></tr><tr><td style="font-weight:bold;vertical-align:top;">view</td><td style="vertical-align:top;">:</td><td><div>default/question.html</div></td></tr></table></div>'
tRp167
sS'locals'
p168
(dp169
S'self'
p170
S'<DAL uri="sqlite://storage.sqlite">'
p171
sS'key'
p172
S"'ratings'"
p173
sssS'traceback'
p174
S'Traceback (most recent call last):\n  File "/home/vikramahuja/web2py/gluon/restricted.py", line 217, in restricted\n    exec ccode in environment\n  File "/home/vikramahuja/web2py/applications/QuestionAnswer/controllers/default.py", line 662, in <module>\n  File "/home/vikramahuja/web2py/gluon/globals.py", line 372, in <lambda>\n    self._caller = lambda f: f()\n  File "/home/vikramahuja/web2py/applications/QuestionAnswer/controllers/default.py", line 263, in question\n    db.ratings.postid.default=this_page.id\n  File "/home/vikramahuja/web2py/gluon/dal.py", line 8041, in __getattr__\n    return ogetattr(self, key)\nAttributeError: \'DAL\' object has no attribute \'ratings\'\n'
p175
s.