(dp1
S'output'
p2
S"<type 'exceptions.AttributeError'> 'DAL' object has no attribute 'ratings'"
p3
sS'layer'
p4
S'/home/vikramahuja/web2py/applications/QuestionAnswer/views/default/all.html'
p5
sS'code'
p6
S'response.write(\'<!DOCTYPE html PUBLIC "-//W3C//DTD XHTML 1.0 Transitional//EN" "http://www.w3.org/TR/xhtml1/DTD/xhtml1-transitional.dtd">\\n<html xmlns="http://www.w3.org/1999/xhtml">\\n\\t<head>\\n\\t\\t<meta http-equiv="Content-Type" content="text/html; charset=utf-8" />\\n\\t\\t<title>Questions & Answer</title>\\n\\t\\t<meta name="keywords" content="free css layout, old blog template, CSS, HTML" />\\n\\t\\t<meta name="description" content="Old Blog Template - free website template provided by TemplateMo.com" />\\n\\n\\t\\t\', escape=False)\nresponse.files.append(URL(request.application,\'static\',\'oldblog/tabcontent.css\'))\nresponse.write(\'\\n\\t\\t\', escape=False)\nresponse.files.append(URL(request.application,\'static\',\'oldblog/templatemo_style.css\'))\nresponse.write(\'\\n\\t\\t\', escape=False)\nresponse.files.append(URL(\'static\',\'plugin_layouts/superfish.js\'))\nresponse.write(\'\\t\\t\\n\\t\\t<script type="text/javascript" src="../static/oldblog/tabcontent.js">\\n\\t\\t</script>\\n\\t\\t\', escape=False)\nresponse.files.append(URL(\'static\',\'oldblog/tabcontent.js\'))\nresponse.write(\'\\n\\n\\n\\t\\t<script type="text/javascript" src="../static/jquery.min.js"></script>\\n\\t\\t\', escape=False)\nresponse.files.append(URL(\'static\',\'jquery.min.js\'))\nresponse.write(\'\\n\\n\\t\\t\', escape=False)\nresponse.write(\'<script type="text/javascript"><!--\\n    // These variables are used by the web2py_ajax_init function in web2py_ajax.js (which is loaded below).\\n    var w2p_ajax_confirm_message = "\', escape=False)\nresponse.write(T(\'Are you sure you want to delete this object?\'))\nresponse.write(\'";\\n    var w2p_ajax_date_format = "\', escape=False)\nresponse.write(T(\'%Y-%m-%d\'))\nresponse.write(\'";\\n    var w2p_ajax_datetime_format = "\', escape=False)\nresponse.write(T(\'%Y-%m-%d %H:%M:%S\'))\nresponse.write(\'";\\n    //--></script>\\n\', escape=False)\nresponse.files.insert(0,URL(\'static\',\'js/jquery.js\'))\nresponse.files.insert(1,URL(\'static\',\'css/calendar.css\'))\nresponse.files.insert(2,URL(\'static\',\'js/calendar.js\'))\nresponse.files.insert(3,URL(\'static\',\'js/web2py.js\'))\nresponse.include_meta()\nresponse.include_files()\nresponse.write(\'\\n\', escape=False)\nresponse.write(\'\\n\\n\\n\\n\\n\\t\\t<style>\\n\\t\\t\\tul.web2py-menu-vertical { width: 150px; position: relative; top:1em; left:1em;  z-index:30; border:0; margin:0; padding: 0; list-style: none; text-decoration: none;}\\n\\t\\t\\tul.web2py-menu-vertical li { margin:0; padding:0; border:0; width: 150px; background: black; text-align:left;}\\n\\t\\t\\tul.web2py-menu-vertical li a { margin:0; padding: 1px 3px 1px 3px; border:0; width: 144px; color: white; font-size:12px;}\\n\\t\\t\\tdiv.flash { position: fixed; float: right; padding: 10px; top: 10px; right: 30px; opacity: 0.75; margin: 10px 10px 10px 10px; text-align: center; clear: both; color: #fff; font-size: 11pt; text-align: center; vertical-align: middle; cursor: pointer; background:black; border: 2px solid #fff; -moz-border-radius: 5px; -webkit-border-radius: 5px; z-index: 2; }\\n\\t\\t\\tdiv.error { background-color: red; color: white; padding: 3px; }\\n\\t\\t\\t.auth_navbar { text-align:right; z-index:20; position: absolute; top: 2px; right:30px; border:0; padding:0 }\\n\\t\\t</style>\\n\\n\\n\\n\\n\\n\\n\\n\\t\\t<div class="flash">\', escape=False)\nresponse.write(response.flash or \'\')\nresponse.write(\'</div>\\n\\n\\n\\t</head>\\n\\t<body>\\n\\n\\t\\t<div id="templatemo_header_panel">\\n\\t\\t\\t\', escape=False)\ntry:\n    response.write(auth.navbar(action=URL(\'default\',\'user\')))\nexcept:pass\nresponse.write(\'\\n\\t\\t\\t<div id="templatemo_title_section">\\n\\n\\t\\t\\t\\t<h1>QUESTION&ANSWER</h1>\\n\\n\\t\\t\\t\\tA basic questions-answers portal implementation</div>\\n\\n\\t\\t</div> <!-- end of templatemo header panel -->\\n\\t\\t<div id="templatemo_menu_panel">\\n\\t\\t\\t<div id="templatemo_menu_section">\\n\\n\\t\\t\\t\\t\', escape=False)\nresponse.write(MENU(response.menu,_class=\'web2py-menu\'))\nresponse.write(\' \\n\\t\\t\\t</div>\\n\\t\\t</div> <!-- end of menu -->\\n\\n\\t\\t<div id="templatemo_content_container">\\n\\t\\t\\t<div id="templatemo_content">\\n\\t\\t\\t\\t<div id="templatemo_content_left">\\n\\t\\t\\t\\t\\t\', escape=False)\nresponse.write(\'\\n\\n<h4>RECENT QUESTIONS</h4></br></br>\\n<ol>\', escape=False)\nfor i in result:\n    response.write(\'\\n\\t\', escape=False)\n    bb=db((db.ratings.id>0)&(db.ratings.postid==i.id)).select(db.ratings.rating)\n    response.write(\'\\n\\n\\t\', escape=False)\n    ss=db((db.answer.id>0)&(db.answer.answer_id==i.id)).select(db.answer.answer)\n    response.write(\'\\n\\n\\n\\n\\n\\n\\t\\t<div class="post">\\n\\t\\t\\t<div class="postdate"> <div class="month"></div></div>\\n\\t\\t\\t\\n\\n\\t\\t\\t<div class="postbody">\\n\\t\\t\\t\\t<h2>\', escape=False)\n    response.write((A(i.title, _href=URL(\'question\', args=i.id))))\n    response.write(\'</h2>\\n\\n\\t\\t\\t\\t<div class="posttext">\\n\\n\\n\\t\\t\\t\\t\\t\', escape=False)\n    if auth.user:\n        response.write(\'\\n\\t\\t\\t\\t\\t\', escape=False)\n        tim=db(db.admins.id>0).select()\n        response.write(\'\\n\\t\\t\\t\\t\\t\', escape=False)\n        for j in tim:\n            response.write(\'\\n\\t\\t\\t\\t\\t\', escape=False)\n            if auth.user.id==j.id:\n                response.write(\'\\n\\t\\t\\t\\t\\t\', escape=False)\n                response.write((A(\'Delete it\', _href=URL(\'delete1\', args=i.id))))\n                response.write(\'\\n\\t\\t\\t\\t\\t\', escape=False)\n                break\n            response.write(\'\\n\\t\\t\\t\\t\\t\', escape=False)\n            pass\n        response.write(\'\\n\\t\\t\\t\\t\\t\', escape=False)\n        pass\n    response.write(\'\\n\\n\\n\\n\\t\\t\\t\\t\\t\', escape=False)\n    if len(bb)!=0:\n        response.write(\'\\n\\t\\t\\t\\t\\t</br>\\n\\t\\t\\t\\t\\tRATINGS:\\n\\t\\t\\t\\t\\t\', escape=False)\n        c=0\n        response.write(\'\\n\\t\\t\\t\\t\\t\', escape=False)\n        for k in bb:\n            response.write(\'\\n\\t\\t\\t\\t\\t\', escape=False)\n            c=c+k.rating\n            response.write(\'\\n\\t\\t\\t\\t\\t\', escape=False)\n            pass\n        response.write(\'\\n\\t\\t\\t\\t\\t\', escape=False)\n        c/=len(bb)\n        response.write(\'\\n\\t\\t\\t\\t\\t\\n\\t\\t\\t\\t\\t\', escape=False)\n        response.write(("%0.2f" % c))\n        response.write(\'\\n\\n\\t\\t\\t\\t\\t\\n\\n\\t\\t\\t&nbsp;&nbsp;&nbsp;&nbsp;&nbsp;&nbsp;&nbsp;&nbsp;&nbsp;&nbsp;&nbsp;&nbsp;&nbsp;&nbsp;&nbsp;&nbsp;&nbsp;&nbsp;&nbsp;&nbsp;&nbsp;&nbsp;&nbsp;&nbsp;&nbsp;&nbsp;&nbsp;&nbsp;&nbsp;&nbsp;&nbsp;&nbsp;&nbsp;&nbsp;&nbsp;&nbsp;&nbsp;&nbsp;&nbsp;&nbsp;&nbsp;&nbsp;&nbsp;&nbsp;&nbsp;&nbsp;&nbsp;\\t\\t&nbsp;&nbsp;&nbsp;&nbsp;&nbsp;&nbsp;&nbsp;&nbsp;&nbsp;&nbsp;&nbsp;&nbsp;&nbsp;&nbsp;&nbsp;&nbsp;&nbsp;&nbsp;&nbsp;&nbsp;&nbsp;&nbsp;&nbsp;&nbsp;&nbsp;&nbsp;&nbsp;&nbsp;&nbsp;&nbsp;&nbsp;&nbsp;&nbsp;&nbsp;\\n\\t\\t\\t\\t\\t\', escape=False)\n        response.write((A(\'Add to favorites\', _href=URL(\'addfavorite\', args=i.id))))\n        response.write(\'\\n\\t\\t\\t\\t\\t\', escape=False)\n    else:\n        response.write(\'\\n\\t\\t\\t\\t\\t&nbsp;&nbsp;&nbsp;&nbsp;&nbsp;&nbsp;&nbsp;&nbsp;&nbsp;&nbsp;&nbsp;&nbsp;&nbsp;&nbsp;&nbsp;&nbsp;&nbsp;&nbsp;&nbsp;&nbsp;&nbsp;&nbsp;&nbsp;&nbsp;&nbsp;&nbsp;&nbsp;&nbsp;&nbsp;&nbsp;&nbsp;&nbsp;&nbsp;&nbsp;&nbsp;&nbsp;&nbsp;&nbsp;&nbsp;&nbsp;&nbsp;&nbsp;&nbsp;&nbsp;&nbsp;&nbsp;&nbsp;&nbsp;&nbsp;&nbsp;&nbsp;&nbsp;&nbsp;\\n\\t\\t\\t\\t\\t&nbsp;&nbsp;&nbsp;&nbsp;&nbsp;&nbsp;&nbsp;&nbsp;&nbsp;&nbsp;&nbsp;&nbsp;&nbsp;&nbsp;&nbsp;&nbsp;&nbsp;&nbsp;&nbsp;&nbsp;&nbsp;&nbsp;&nbsp;&nbsp;&nbsp;&nbsp;&nbsp;&nbsp;&nbsp;&nbsp;&nbsp;&nbsp;&nbsp;&nbsp;&nbsp;&nbsp;&nbsp;&nbsp;&nbsp;&nbsp;&nbsp;&nbsp;&nbsp;&nbsp;&nbsp;&nbsp;&nbsp;&nbsp;&nbsp;&nbsp;&nbsp;&nbsp; \', escape=False)\n        response.write((A(\'Add to favorites\', _href=URL(\'addfavorite\', args=i.id))))\n        response.write(\'\\n\\t\\t\\t\\t\\t\', escape=False)\n        pass\n    response.write(\'\\t\\n\\n\\t\\t\\t\\t\\t<div class="comment_more"><span><span>\', escape=False)\n    response.write(len(ss))\n    response.write(\' answers till now </span></span></div>\\n\\n\\t\\t\\t\\n\\t\\n\\n\\n\\n\\nby\\t\', escape=False)\n    response.write(A((db.auth_user[i.posted_by].first_name),_href=URL(\'showfriends\',args=i.posted_by)))\n    response.write(\'  \', escape=False)\n    response.write(A((db.auth_user[i.posted_by].last_name    ),_href=URL(\'showfriends\',args=i.posted_by)))\n    response.write(\'\\n\\n\\t\\t\\t\\t\\tasked \', escape=False)\n    response.write(prettydate(i.posted_on))\n    response.write(\'\\n\\t\\t\\t\\t\\tin \', escape=False)\n    response.write(A((db.classify[i.classification].topic),_href=URL(\'showtopic\',args=i.classification)))\n    response.write(\'</br>\\n\\n\\n\\n\\t\\t\\t\\t</div>\\n\\t\\t\\t</div>\\n\\t\\t</div>\\n\\n\\n\\n\\n\\n\\n\\t\\t\', escape=False)\n    pass\nresponse.write(\'\\n\\n\\t\\t\', escape=False)\npass\nresponse.write(\'\\n\\t</ol>\\n\', escape=False)\nresponse.write(\'\\n\\n\\n\\t\\t\\t\\t</div> <!-- end of content left -->\\n\\n\\n\\n\\n\\n\\n\\t\\t\\t\\t<div id="templatemo_content_right">\\n\\t\\t\\t\\t\\t<div class="templatemo_right_section">\\n\\t\\t\\t\\t\\t\\t<div class="tag_section">\\n\\t\\t\\t\\t\\t\\t\\t<ul id="countrytabs" class="shadetabs">\\n\\t\\t\\t\\t\\t\\t\\t\\t<li><a href=# rel="search" class="selected">Search Questions</a></li>     \\n\\t\\t\\t\\t\\t\\t\\t\\t<li><a href=# rel="search1">Search Users</a></li>\\n\\t\\t\\t\\t\\t\\t\\t</ul>\\n\\t\\t\\t\\t\\t\\t</div>\\n\\t\\t\\t\\t\\t\\t<div class="tabcontent_section">\\n\\t\\t\\t\\t\\t\\t\\t<div id="search" class="tabcontent">\\n\\n\\t\\t\\t\\t\\t\\t\\t\\t<form action=\', escape=False)\nresponse.write(URL(\'default\',\'find3\'))\nresponse.write(\' method=\\\'POST\\\'>\\n\\t\\t\\t\\t\\t\\t\\t\\t\\t<input class="inputfield" type="text" name = "si" placeholder="Search Any Question" />\\n\\t\\t\\t\\t\\t\\t\\t\\t\\t<input type="submit" value="Search" name="submit" class="button" />\\n\\t\\t\\t\\t\\t\\t\\t\\t</form>\\n\\n\\n\\n\\t\\t\\t\\t\\t\\t\\t</div>\\n\\t\\t\\t\\t\\t\\t\\t<div id="search1" class="tabcontent">\\n\\n\\t\\t\\t\\t\\t\\t\\t\\t<form action=\', escape=False)\nresponse.write(URL(\'default\',\'find1\'))\nresponse.write(\' method=\\\'POST\\\'>\\n\\t\\t\\t\\t\\t\\t\\t\\t\\t<input class="inputfield" type="text" name = "si" placeholder="Search Any User" />\\n\\t\\t\\t\\t\\t\\t\\t\\t\\t<input type="submit" value="Search"  name="submit" class="button"/>\\n\\t\\t\\t\\t\\t\\t\\t\\t</form>\\n\\n\\n\\n\\n\\t\\t\\t\\t\\t\\t\\t</div>\\n\\t\\t\\t\\t\\t\\t</div>\\n\\t\\t\\t\\t\\t\\t<script type="text/javascript">\\n\\t\\t\\t\\t\\t\\t\\tvar countries=new ddtabcontent("countrytabs")\\ncountries.setpersist(true)\\n\\tcountries.setselectedClassTarget("link") //"link" or "linkparent"\\ncountries.init()\\n\\t</script> <!--- end of tag -->\\n\\n</div>\\n\\n\\n\\n<div class="templatemo_right_section">\\n\\t<h2>Recent Questions</h2>\\n\\n\\t\', escape=False)\naa=db(db.post.id>0).select(db.post.title,db.post.classification,db.post.id,db.post.posted_by,limitby=(0, 5),orderby=~db.post.posted_on)\nresponse.write(\'\\n\\t\', escape=False)\nfor i in aa:\n    response.write(\'\\n\\t<ul>\\n\\t\\t<li>\', escape=False)\n    response.write((A(i.title, _href=URL(\'question\', args=i.id))))\n    response.write(\'</br>\\n\\n\\t\\tposted by\\n\\n\\n\\t\\t\', escape=False)\n    response.write(A((db.auth_user[i.posted_by].first_name),_href=URL(\'showfriends\',args=i.posted_by)))\n    response.write(\'  \', escape=False)\n    response.write(A((db.auth_user[i.posted_by].last_name),_href=URL(\'showfriends\',args=i.posted_by)))\n    response.write(\'\\n\\n\\t\\tin \', escape=False)\n    response.write(A((db.classify[i.classification].topic),_href=URL(\'showtopic\',args=i.classification)))\n    response.write(\'\\n\\t\\t</li>\\n\\n\\t</ul>   \\n\\n\\t\', escape=False)\n    pass\nresponse.write(\'\\n\\t<a href=all.html>more...</a>\\n</div>\\n\\n<div class="templatemo_right_section">\\n\\t<h2>Most Viewed Questions</h2>\\n\\t\', escape=False)\nabc=db(db.post.id>0).select(db.post.id,db.post.title,db.post.classification,db.post.posted_by,limitby=(0,5),orderby=~db.post.counter)\nresponse.write(\'\\n\\t<ul>\\n\\t\\t\', escape=False)\nfor i in abc:\n    response.write(\'\\n\\n\\t\\t<li>\', escape=False)\n    response.write((A(i.title, _href=URL(\'question\', args=i.id))))\n    response.write(\'</br>\\n\\t\\tposted by\\n\\t\\t\', escape=False)\n    response.write(A((db.auth_user[i.posted_by].first_name),_href=URL(\'showfriends\',args=i.posted_by)))\n    response.write(\'  \', escape=False)\n    response.write(A((db.auth_user[i.    posted_by].last_name),_href=URL(\'showfriends\',args=i.posted_by)))\n    response.write(\'\\n\\n\\t\\tin \', escape=False)\n    response.write(A((db.classify[i.classification].topic),_href=URL(\'showtopic\',args=i.classification)))\n    response.write(\'</li>\\n\\t\\t\', escape=False)\n    pass\nresponse.write(\'\\n\\n\\n\\t\\t<a href=all.html>more...</a>\\n\\n\\n\\t</ul>  \\n</div>\\n\\n\\n\\n<div class="templatemo_right_section">\\n\\t<h2>Unanswered Questions</h2>\\n\\n\\t\', escape=False)\nqwe=db(db.post.id>0).select(db.post.id,db.post.title,db.post.posted_by,db.post.posted_on,db.post.classification,orderby=~db.post.posted_on)\nresponse.write(\'\\n\\n\\t\', escape=False)\nqwe1=db(db.answer.id>0).select(db.answer.answer_id)\nresponse.write(\'\\n\\n\\t<ul>\\n\\t\\t\', escape=False)\ncount=0\nresponse.write(\'\\n\\t\\t\', escape=False)\nfor i in qwe:\n    response.write(\'\\t\\t  \\n\\n\\t\\t\', escape=False)\n    qwerty=1\n    response.write(\'\\n\\t\\t\', escape=False)\n    for j in qwe1:\n        response.write(\'\\n\\t\\t\', escape=False)\n        if i.id==j.answer_id:\n            response.write(\'\\n\\t\\t\', escape=False)\n            qwerty=0\n            response.write(\'\\n\\t\\t\', escape=False)\n            break\n        response.write(\'\\n\\t\\t\', escape=False)\n        pass\n    response.write(\'\\t\\n\\t\\t\', escape=False)\n    if qwerty==1:\n        response.write(\'\\n\\t\\t\', escape=False)\n        count=count+1\n        response.write(\'\\n\\t\\t\', escape=False)\n        if count>5:\n            response.write(\'\\n\\t\\t\', escape=False)\n            break\n        response.write(\'\\n\\t\\t<li>\', escape=False)\n        response.write((A(i.title, _href=URL(\'question\', args=i.id))))\n        response.write(\'</br>\\n\\t\\tposted by\\n\\t\\t\', escape=False)\n        response.write(A((db.auth_user[i.posted_by].first_name),_href=URL(\'showfriends\',args=i.posted_by)))\n        response.write(\'  \', escape=False)\n        response.write(A((db.auth_user[i.posted_by].last_name),_href=URL(\'showfriends\',args=i.posted_by)))\n        response.write(\'\\n\\n\\t\\tin \', escape=False)\n        response.write(A((db.classify[i.classification].topic),_href=URL(\'showtopic\',args=i.classification)))\n        response.write(\'</li>\\n\\t\\t\', escape=False)\n        pass\n    response.write(\'\\n\\n\\t\\t\', escape=False)\n    qwerty=1\n    response.write(\'\\n\\n\\n\\t\\t\', escape=False)\n    pass\nresponse.write(\'\\n\\n\\n\\t\\t<a href=unanswered.html>more...</a>\\n\\t</ul>\\n\\n</div>\\n\\n\\n\\t\\t\\t\\t\\t</div> <!-- end of right content -->\\n\\t\\t\\t\\t</div> <!-- end of content -->\\n\\t\\t\\t</div> <!-- end of content container -->\\n\\n\\t\\t\\t<div id="templatemo_bottom_panel">\\n\\t\\t\\t\\t<div id="templatemo_bottom_section">\\n\\n\\n\\t\\t\\t\\t\\t<div class="templatemo_bottom_section_content">\\n\\t\\t\\t\\t\\t\\t<h3>Suggestions</h3>\\n\\t\\t\\t\\t\\t\\t<ul>\\n\\t\\t\\t\\t\\t\\t\\t<li><a href="feedback.html">Feedback</a></li>\\n\\t\\t\\t\\t\\t\\t</ul>\\n\\t\\t\\t\\t\\t</div>\\n\\n\\n\\t\\t\\t\\t\\t<div class="templatemo_bottom_section_content">\\n\\t\\t\\t\\t\\t\\t<h3>Other Links</h3>\\n\\t\\t\\t\\t\\t\\t<ul>\\n\\t\\t\\t\\t\\t\\t\\t<li><a href="#">Terms</a></li>\\n\\t\\t\\t\\t\\t\\t\\t<li><a href="#">Guidelines</a></li>               \\n\\t\\t\\t\\t\\t\\t\\t<li><a href="#">Contact</a></li>\\n\\t\\t\\t\\t\\t\\t</ul>\\n\\t\\t\\t\\t\\t</div>\\n\\n\\t\\t\\t\\t\\t<div class="templatemo_bottom_section_content">\\n\\t\\t\\t\\t\\t\\t<h3>About this portal</h3>\\n\\t\\t\\t\\t\\t\\t<p> This is a knowledge sharing portal.Find out everything that you wnat to know. If you are just getting started or are a seasoned veteran looking for some Answers here is the place to find it. </p>\\n\\n\\t\\t\\t\\t\\t</div>\\n\\n\\t\\t\\t\\t</div>\\n\\t\\t\\t</div> <!-- end of templatemo bottom panel -->\\n\\n\\t\\t\\t<div id="templatemo_footer_panel">\\n\\t\\t\\t\\t<div id="templatemo_footer_section">\\n\\t\\t\\t\\t\\tCopyright \\xc2\\xa9 2013 Question-Answers | Designed by Vikram Ahuja\\n\\t\\t\\t\\t</div>\\n\\t\\t\\t</div>\\n\\t\\t</body>\\n\\t</html>\\n\', escape=False)'
p7
sS'snapshot'
p8
(dp9
S'exception'
p10
(dp11
S'__hash__'
p12
S"<method-wrapper '__hash__' of exceptions.AttributeError object>"
p13
sS'__setattr__'
p14
S"<method-wrapper '__setattr__' of exceptions.AttributeError object>"
p15
sS'__reduce_ex__'
p16
S'<built-in method __reduce_ex__ of exceptions.AttributeError object>'
p17
sS'__getslice__'
p18
S"<method-wrapper '__getslice__' of exceptions.AttributeError object>"
p19
sS'__getitem__'
p20
S"<method-wrapper '__getitem__' of exceptions.AttributeError object>"
p21
sS'__setstate__'
p22
S'<built-in method __setstate__ of exceptions.AttributeError object>'
p23
sS'args'
p24
S'("\'DAL\' object has no attribute \'ratings\'",)'
p25
sS'__reduce__'
p26
S'<built-in method __reduce__ of exceptions.AttributeError object>'
p27
sS'__str__'
p28
S"<method-wrapper '__str__' of exceptions.AttributeError object>"
p29
sS'__format__'
p30
S'<built-in method __format__ of exceptions.AttributeError object>'
p31
sS'__getattribute__'
p32
S"<method-wrapper '__getattribute__' of exceptions.AttributeError object>"
p33
sS'__class__'
p34
S"<type 'exceptions.AttributeError'>"
p35
sS'__unicode__'
p36
S'<built-in method __unicode__ of exceptions.AttributeError object>'
p37
sS'__delattr__'
p38
S"<method-wrapper '__delattr__' of exceptions.AttributeError object>"
p39
sS'__subclasshook__'
p40
S'<built-in method __subclasshook__ of type object>'
p41
sS'__repr__'
p42
S"<method-wrapper '__repr__' of exceptions.AttributeError object>"
p43
sS'__dict__'
p44
S'{}'
p45
sS'__sizeof__'
p46
S'<built-in method __sizeof__ of exceptions.AttributeError object>'
p47
sS'__doc__'
p48
S"'Attribute not found.'"
p49
sS'__init__'
p50
S"<method-wrapper '__init__' of exceptions.AttributeError object>"
p51
sS'__new__'
p52
S'<built-in method __new__ of type object>'
p53
ssS'evalue'
p54
S"'DAL' object has no attribute 'ratings'"
p55
sS'request'
p56
cgluon.html
XML_unpickle
p57
(S's\xd1Z\x00\x00<div><table><tr><td style="font-weight:bold;vertical-align:top;">ajax</td><td style="vertical-align:top;">:</td><td><div>False</div></td></tr><tr><td style="font-weight:bold;vertical-align:top;">application</td><td style="vertical-align:top;">:</td><td><div>QuestionAnswer</div></td></tr><tr><td style="font-weight:bold;vertical-align:top;">args</td><td style="vertical-align:top;">:</td><td><div><table></table></div></td></tr><tr><td style="font-weight:bold;vertical-align:top;">cid</td><td style="vertical-align:top;">:</td><td><div>None</div></td></tr><tr><td style="font-weight:bold;vertical-align:top;">client</td><td style="vertical-align:top;">:</td><td><div>14.139.82.6</div></td></tr><tr><td style="font-weight:bold;vertical-align:top;">controller</td><td style="vertical-align:top;">:</td><td><div>default</div></td></tr><tr><td style="font-weight:bold;vertical-align:top;">cookies</td><td style="vertical-align:top;">:</td><td><div><table><tr><td style="font-weight:bold;vertical-align:top;">countrytabs</td><td style="vertical-align:top;">:</td><td><div>1<table><tr><td style="font-weight:bold;vertical-align:top;">comment</td><td style="vertical-align:top;">:</td><td><div></div></td></tr><tr><td style="font-weight:bold;vertical-align:top;">domain</td><td style="vertical-align:top;">:</td><td><div></div></td></tr><tr><td style="font-weight:bold;vertical-align:top;">expires</td><td style="vertical-align:top;">:</td><td><div></div></td></tr><tr><td style="font-weight:bold;vertical-align:top;">httponly</td><td style="vertical-align:top;">:</td><td><div></div></td></tr><tr><td style="font-weight:bold;vertical-align:top;">max-age</td><td style="vertical-align:top;">:</td><td><div></div></td></tr><tr><td style="font-weight:bold;vertical-align:top;">path</td><td style="vertical-align:top;">:</td><td><div></div></td></tr><tr><td style="font-weight:bold;vertical-align:top;">secure</td><td style="vertical-align:top;">:</td><td><div></div></td></tr><tr><td style="font-weight:bold;vertical-align:top;">version</td><td style="vertical-align:top;">:</td><td><div></div></td></tr></table></div></td></tr><tr><td style="font-weight:bold;vertical-align:top;">session_id_admin</td><td style="vertical-align:top;">:</td><td><div>10.1.40.15-c440981b-d45c-443d-85be-558bf5ef015e<table><tr><td style="font-weight:bold;vertical-align:top;">comment</td><td style="vertical-align:top;">:</td><td><div></div></td></tr><tr><td style="font-weight:bold;vertical-align:top;">domain</td><td style="vertical-align:top;">:</td><td><div></div></td></tr><tr><td style="font-weight:bold;vertical-align:top;">expires</td><td style="vertical-align:top;">:</td><td><div></div></td></tr><tr><td style="font-weight:bold;vertical-align:top;">httponly</td><td style="vertical-align:top;">:</td><td><div></div></td></tr><tr><td style="font-weight:bold;vertical-align:top;">max-age</td><td style="vertical-align:top;">:</td><td><div></div></td></tr><tr><td style="font-weight:bold;vertical-align:top;">path</td><td style="vertical-align:top;">:</td><td><div></div></td></tr><tr><td style="font-weight:bold;vertical-align:top;">secure</td><td style="vertical-align:top;">:</td><td><div></div></td></tr><tr><td style="font-weight:bold;vertical-align:top;">version</td><td style="vertical-align:top;">:</td><td><div></div></td></tr></table></div></td></tr><tr><td style="font-weight:bold;vertical-align:top;">session_id_questionanswer</td><td style="vertical-align:top;">:</td><td><div>14.139.82.6-4811bb23-dcd2-4b8d-ab15-e5a7d7181d9e<table><tr><td style="font-weight:bold;vertical-align:top;">comment</td><td style="vertical-align:top;">:</td><td><div></div></td></tr><tr><td style="font-weight:bold;vertical-align:top;">domain</td><td style="vertical-align:top;">:</td><td><div></div></td></tr><tr><td style="font-weight:bold;vertical-align:top;">expires</td><td style="vertical-align:top;">:</td><td><div></div></td></tr><tr><td style="font-weight:bold;vertical-align:top;">httponly</td><td style="vertical-align:top;">:</td><td><div></div></td></tr><tr><td style="font-weight:bold;vertical-align:top;">max-age</td><td style="vertical-align:top;">:</td><td><div></div></td></tr><tr><td style="font-weight:bold;vertical-align:top;">path</td><td style="vertical-align:top;">:</td><td><div></div></td></tr><tr><td style="font-weight:bold;vertical-align:top;">secure</td><td style="vertical-align:top;">:</td><td><div></div></td></tr><tr><td style="font-weight:bold;vertical-align:top;">version</td><td style="vertical-align:top;">:</td><td><div></div></td></tr></table></div></td></tr><tr><td style="font-weight:bold;vertical-align:top;">session_id_welcome</td><td style="vertical-align:top;">:</td><td><div>10.1.40.15-383cdd81-ea28-4c8f-ac61-f348beefbed5<table><tr><td style="font-weight:bold;vertical-align:top;">comment</td><td style="vertical-align:top;">:</td><td><div></div></td></tr><tr><td style="font-weight:bold;vertical-align:top;">domain</td><td style="vertical-align:top;">:</td><td><div></div></td></tr><tr><td style="font-weight:bold;vertical-align:top;">expires</td><td style="vertical-align:top;">:</td><td><div></div></td></tr><tr><td style="font-weight:bold;vertical-align:top;">httponly</td><td style="vertical-align:top;">:</td><td><div></div></td></tr><tr><td style="font-weight:bold;vertical-align:top;">max-age</td><td style="vertical-align:top;">:</td><td><div></div></td></tr><tr><td style="font-weight:bold;vertical-align:top;">path</td><td style="vertical-align:top;">:</td><td><div></div></td></tr><tr><td style="font-weight:bold;vertical-align:top;">secure</td><td style="vertical-align:top;">:</td><td><div></div></td></tr><tr><td style="font-weight:bold;vertical-align:top;">version</td><td style="vertical-align:top;">:</td><td><div></div></td></tr></table></div></td></tr></table></div></td></tr><tr><td style="font-weight:bold;vertical-align:top;">env</td><td style="vertical-align:top;">:</td><td><div><table><tr><td style="font-weight:bold;vertical-align:top;">CONTENT_LENGTH</td><td style="vertical-align:top;">:</td><td><div></div></td></tr><tr><td style="font-weight:bold;vertical-align:top;">CONTENT_TYPE</td><td style="vertical-align:top;">:</td><td><div></div></td></tr><tr><td style="font-weight:bold;vertical-align:top;">DOCUMENT_ROOT</td><td style="vertical-align:top;">:</td><td><div>/usr/local/openresty/nginx/html</div></td></tr><tr><td style="font-weight:bold;vertical-align:top;">HTTPS</td><td style="vertical-align:top;">:</td><td><div>on</div></td></tr><tr><td style="font-weight:bold;vertical-align:top;">HTTP_ACCEPT</td><td style="vertical-align:top;">:</td><td><div>text/html,application/xhtml+xml,application/xml;q=0.9,*/*;q=0.8</div></td></tr><tr><td style="font-weight:bold;vertical-align:top;">HTTP_ACCEPT_ENCODING</td><td style="vertical-align:top;">:</td><td><div>gzip, deflate</div></td></tr><tr><td style="font-weight:bold;vertical-align:top;">HTTP_ACCEPT_LANGUAGE</td><td style="vertical-align:top;">:</td><td><div>en-US,en;q=0.5</div></td></tr><tr><td style="font-weight:bold;vertical-align:top;">HTTP_CONNECTION</td><td style="vertical-align:top;">:</td><td><div>close</div></td></tr><tr><td style="font-weight:bold;vertical-align:top;">HTTP_COOKIE</td><td style="vertical-align:top;">:</td><td><div>_ga=GA1.2.1189342101.1426965359; _gat=1; session_id_welcome=10.1.40.15-383cdd81-ea28-4c8f-ac61-f348beefbed5; session_id_admin=10.1.40.15-c440981b-d45c-443d-85be-558bf5ef015e; session_id_questionanswer=14.139.82.6-4811bb23-dcd2-4b8d-ab15-e5a7d7181d9e; countrytabs=1</div></td></tr><tr><td style="font-weight:bold;vertical-align:top;">HTTP_HOST</td><td style="vertical-align:top;">:</td><td><div>vikramahuja.pythonanywhere.com</div></td></tr><tr><td style="font-weight:bold;vertical-align:top;">HTTP_REFERER</td><td style="vertical-align:top;">:</td><td><div>https://vikramahuja.pythonanywhere.com/QuestionAnswer/default/ask.html</div></td></tr><tr><td style="font-weight:bold;vertical-align:top;">HTTP_USER_AGENT</td><td style="vertical-align:top;">:</td><td><div>Mozilla/5.0 (Macintosh; Intel Mac OS X 10.10; rv:36.0) Gecko/20100101 Firefox/36.0</div></td></tr><tr><td style="font-weight:bold;vertical-align:top;">HTTP_X_FORWARDED_FOR</td><td style="vertical-align:top;">:</td><td><div>14.139.82.6</div></td></tr><tr><td style="font-weight:bold;vertical-align:top;">HTTP_X_REAL_IP</td><td style="vertical-align:top;">:</td><td><div>14.139.82.6</div></td></tr><tr><td style="font-weight:bold;vertical-align:top;">PATH_INFO</td><td style="vertical-align:top;">:</td><td><div>/QuestionAnswer/default/all</div></td></tr><tr><td style="font-weight:bold;vertical-align:top;">QUERY_STRING</td><td style="vertical-align:top;">:</td><td><div></div></td></tr><tr><td style="font-weight:bold;vertical-align:top;">REMOTE_ADDR</td><td style="vertical-align:top;">:</td><td><div>10.157.107.232</div></td></tr><tr><td style="font-weight:bold;vertical-align:top;">REMOTE_PORT</td><td style="vertical-align:top;">:</td><td><div>50738</div></td></tr><tr><td style="font-weight:bold;vertical-align:top;">REQUEST_METHOD</td><td style="vertical-align:top;">:</td><td><div>GET</div></td></tr><tr><td style="font-weight:bold;vertical-align:top;">REQUEST_URI</td><td style="vertical-align:top;">:</td><td><div>/QuestionAnswer/default/all</div></td></tr><tr><td style="font-weight:bold;vertical-align:top;">SCRIPT_NAME</td><td style="vertical-align:top;">:</td><td><div></div></td></tr><tr><td style="font-weight:bold;vertical-align:top;">SERVER_NAME</td><td style="vertical-align:top;">:</td><td><div>vikramahuja.pythonanywhere.com</div></td></tr><tr><td style="font-weight:bold;vertical-align:top;">SERVER_PORT</td><td style="vertical-align:top;">:</td><td><div>443</div></td></tr><tr><td style="font-weight:bold;vertical-align:top;">SERVER_PROTOCOL</td><td style="vertical-align:top;">:</td><td><div>HTTP/1.1</div></td></tr><tr><td style="font-weight:bold;vertical-align:top;">app_folders</td><td style="vertical-align:top;">:</td><td><div>set([&#x27;/home/vikramahuja/web2py/applications/welcome/&#x27;, &#x27;/home/vikramahuja/web2py/applications/admin/&#x27;, &#x27;/home/vikramahuja/web2py/applications/QuestionAnswer/&#x27;])</div></td></tr><tr><td style="font-weight:bold;vertical-align:top;">applications_parent</td><td style="vertical-align:top;">:</td><td><div>/home/vikramahuja/web2py</div></td></tr><tr><td style="font-weight:bold;vertical-align:top;">content_length</td><td style="vertical-align:top;">:</td><td><div></div></td></tr><tr><td style="font-weight:bold;vertical-align:top;">content_type</td><td style="vertical-align:top;">:</td><td><div></div></td></tr><tr><td style="font-weight:bold;vertical-align:top;">db_sessions</td><td style="vertical-align:top;">:</td><td><div>set([])</div></td></tr><tr><td style="font-weight:bold;vertical-align:top;">debugging</td><td style="vertical-align:top;">:</td><td><div>False</div></td></tr><tr><td style="font-weight:bold;vertical-align:top;">document_root</td><td style="vertical-align:top;">:</td><td><div>/usr/local/openresty/nginx/html</div></td></tr><tr><td style="font-weight:bold;vertical-align:top;">gluon_parent</td><td style="vertical-align:top;">:</td><td><div>/home/vikramahuja/web2py</div></td></tr><tr><td style="font-weight:bold;vertical-align:top;">http_accept</td><td style="vertical-align:top;">:</td><td><div>text/html,application/xhtml+xml,application/xml;q=0.9,*/*;q=0.8</div></td></tr><tr><td style="font-weight:bold;vertical-align:top;">http_accept_encoding</td><td style="vertical-align:top;">:</td><td><div>gzip, deflate</div></td></tr><tr><td style="font-weight:bold;vertical-align:top;">http_accept_language</td><td style="vertical-align:top;">:</td><td><div>en-US,en;q=0.5</div></td></tr><tr><td style="font-weight:bold;vertical-align:top;">http_connection</td><td style="vertical-align:top;">:</td><td><div>close</div></td></tr><tr><td style="font-weight:bold;vertical-align:top;">http_cookie</td><td style="vertical-align:top;">:</td><td><div>_ga=GA1.2.1189342101.1426965359; _gat=1; session_id_welcome=10.1.40.15-383cdd81-ea28-4c8f-ac61-f348beefbed5; session_id_admin=10.1.40.15-c440981b-d45c-443d-85be-558bf5ef015e; session_id_questionanswer=14.139.82.6-4811bb23-dcd2-4b8d-ab15-e5a7d7181d9e; countrytabs=1</div></td></tr><tr><td style="font-weight:bold;vertical-align:top;">http_host</td><td style="vertical-align:top;">:</td><td><div>vikramahuja.pythonanywhere.com</div></td></tr><tr><td style="font-weight:bold;vertical-align:top;">http_referer</td><td style="vertical-align:top;">:</td><td><div>https://vikramahuja.pythonanywhere.com/QuestionAnswer/default/ask.html</div></td></tr><tr><td style="font-weight:bold;vertical-align:top;">http_user_agent</td><td style="vertical-align:top;">:</td><td><div>Mozilla/5.0 (Macintosh; Intel Mac OS X 10.10; rv:36.0) Gecko/20100101 Firefox/36.0</div></td></tr><tr><td style="font-weight:bold;vertical-align:top;">http_x_forwarded_for</td><td style="vertical-align:top;">:</td><td><div>14.139.82.6</div></td></tr><tr><td style="font-weight:bold;vertical-align:top;">http_x_real_ip</td><td style="vertical-align:top;">:</td><td><div>14.139.82.6</div></td></tr><tr><td style="font-weight:bold;vertical-align:top;">https</td><td style="vertical-align:top;">:</td><td><div>on</div></td></tr><tr><td style="font-weight:bold;vertical-align:top;">is_jython</td><td style="vertical-align:top;">:</td><td><div>False</div></td></tr><tr><td style="font-weight:bold;vertical-align:top;">is_pypy</td><td style="vertical-align:top;">:</td><td><div>False</div></td></tr><tr><td style="font-weight:bold;vertical-align:top;">is_source</td><td style="vertical-align:top;">:</td><td><div>True</div></td></tr><tr><td style="font-weight:bold;vertical-align:top;">local_hosts</td><td style="vertical-align:top;">:</td><td><div><table><tr><td><div>giles-liveweb1</div></td></tr><tr><td><div>::ffff:127.0.0.1</div></td></tr><tr><td><div>::1</div></td></tr><tr><td><div>50.19.109.98</div></td></tr><tr><td><div>localhost</div></td></tr><tr><td><div>127.0.0.1</div></td></tr><tr><td><div>vikramahuja.pythonanywhere.com</div></td></tr></table></div></td></tr><tr><td style="font-weight:bold;vertical-align:top;">path_info</td><td style="vertical-align:top;">:</td><td><div>/QuestionAnswer/default/all</div></td></tr><tr><td style="font-weight:bold;vertical-align:top;">query_string</td><td style="vertical-align:top;">:</td><td><div></div></td></tr><tr><td style="font-weight:bold;vertical-align:top;">remote_addr</td><td style="vertical-align:top;">:</td><td><div>10.157.107.232</div></td></tr><tr><td style="font-weight:bold;vertical-align:top;">remote_port</td><td style="vertical-align:top;">:</td><td><div>50738</div></td></tr><tr><td style="font-weight:bold;vertical-align:top;">request_method</td><td style="vertical-align:top;">:</td><td><div>GET</div></td></tr><tr><td style="font-weight:bold;vertical-align:top;">request_uri</td><td style="vertical-align:top;">:</td><td><div>/QuestionAnswer/default/all</div></td></tr><tr><td style="font-weight:bold;vertical-align:top;">script_name</td><td style="vertical-align:top;">:</td><td><div></div></td></tr><tr><td style="font-weight:bold;vertical-align:top;">server_name</td><td style="vertical-align:top;">:</td><td><div>vikramahuja.pythonanywhere.com</div></td></tr><tr><td style="font-weight:bold;vertical-align:top;">server_port</td><td style="vertical-align:top;">:</td><td><div>443</div></td></tr><tr><td style="font-weight:bold;vertical-align:top;">server_protocol</td><td style="vertical-align:top;">:</td><td><div>HTTP/1.1</div></td></tr><tr><td style="font-weight:bold;vertical-align:top;">uwsgi.node</td><td style="vertical-align:top;">:</td><td><div>giles-liveweb1</div></td></tr><tr><td style="font-weight:bold;vertical-align:top;">uwsgi.version</td><td style="vertical-align:top;">:</td><td><div>2.0.5.1</div></td></tr><tr><td style="font-weight:bold;vertical-align:top;">uwsgi_node</td><td style="vertical-align:top;">:</td><td><div>giles-liveweb1</div></td></tr><tr><td style="font-weight:bold;vertical-align:top;">uwsgi_version</td><td style="vertical-align:top;">:</td><td><div>2.0.5.1</div></td></tr><tr><td style="font-weight:bold;vertical-align:top;">web2py_path</td><td style="vertical-align:top;">:</td><td><div>/home/vikramahuja/web2py</div></td></tr><tr><td style="font-weight:bold;vertical-align:top;">web2py_version</td><td style="vertical-align:top;">:</td><td><div>2.7.4-stable+timestamp.2013.10.14.15.16.29</div></td></tr><tr><td style="font-weight:bold;vertical-align:top;">wsgi.errors</td><td style="vertical-align:top;">:</td><td><div>&lt;uwsgi_file__bin_user_wsgi_wrapper.ErrorLogFile object at 0x7f281f15e690&gt;</div></td></tr><tr><td style="font-weight:bold;vertical-align:top;">wsgi.file_wrapper</td><td style="vertical-align:top;">:</td><td><div>&lt;built-in function uwsgi_sendfile&gt;</div></td></tr><tr><td style="font-weight:bold;vertical-align:top;">wsgi.input</td><td style="vertical-align:top;">:</td><td><div>&lt;uwsgi._Input object at 0x7f2830c6cbe8&gt;</div></td></tr><tr><td style="font-weight:bold;vertical-align:top;">wsgi.multiprocess</td><td style="vertical-align:top;">:</td><td><div>False</div></td></tr><tr><td style="font-weight:bold;vertical-align:top;">wsgi.multithread</td><td style="vertical-align:top;">:</td><td><div>False</div></td></tr><tr><td style="font-weight:bold;vertical-align:top;">wsgi.run_once</td><td style="vertical-align:top;">:</td><td><div>False</div></td></tr><tr><td style="font-weight:bold;vertical-align:top;">wsgi.url_scheme</td><td style="vertical-align:top;">:</td><td><div>https</div></td></tr><tr><td style="font-weight:bold;vertical-align:top;">wsgi.version</td><td style="vertical-align:top;">:</td><td><div><table><tr><td><div>1</div></td></tr><tr><td><div>0</div></td></tr></table></div></td></tr><tr><td style="font-weight:bold;vertical-align:top;">wsgi_errors</td><td style="vertical-align:top;">:</td><td><div>&lt;uwsgi_file__bin_user_wsgi_wrapper.ErrorLogFile object at 0x7f281f15e690&gt;</div></td></tr><tr><td style="font-weight:bold;vertical-align:top;">wsgi_file_wrapper</td><td style="vertical-align:top;">:</td><td><div>&lt;built-in function uwsgi_sendfile&gt;</div></td></tr><tr><td style="font-weight:bold;vertical-align:top;">wsgi_input</td><td style="vertical-align:top;">:</td><td><div>&lt;uwsgi._Input object at 0x7f2830c6cbe8&gt;</div></td></tr><tr><td style="font-weight:bold;vertical-align:top;">wsgi_multiprocess</td><td style="vertical-align:top;">:</td><td><div>False</div></td></tr><tr><td style="font-weight:bold;vertical-align:top;">wsgi_multithread</td><td style="vertical-align:top;">:</td><td><div>False</div></td></tr><tr><td style="font-weight:bold;vertical-align:top;">wsgi_run_once</td><td style="vertical-align:top;">:</td><td><div>False</div></td></tr><tr><td style="font-weight:bold;vertical-align:top;">wsgi_url_scheme</td><td style="vertical-align:top;">:</td><td><div>https</div></td></tr><tr><td style="font-weight:bold;vertical-align:top;">wsgi_version</td><td style="vertical-align:top;">:</td><td><div><table><tr><td><div>1</div></td></tr><tr><td><div>0</div></td></tr></table></div></td></tr></table></div></td></tr><tr><td style="font-weight:bold;vertical-align:top;">extension</td><td style="vertical-align:top;">:</td><td><div>html</div></td></tr><tr><td style="font-weight:bold;vertical-align:top;">folder</td><td style="vertical-align:top;">:</td><td><div>/home/vikramahuja/web2py/applications/QuestionAnswer/</div></td></tr><tr><td style="font-weight:bold;vertical-align:top;">function</td><td style="vertical-align:top;">:</td><td><div>all</div></td></tr><tr><td style="font-weight:bold;vertical-align:top;">global_settings</td><td style="vertical-align:top;">:</td><td><div><table><tr><td style="font-weight:bold;vertical-align:top;">app_folders</td><td style="vertical-align:top;">:</td><td><div>set([&#x27;/home/vikramahuja/web2py/applications/welcome/&#x27;, &#x27;/home/vikramahuja/web2py/applications/admin/&#x27;, &#x27;/home/vikramahuja/web2py/applications/QuestionAnswer/&#x27;])</div></td></tr><tr><td style="font-weight:bold;vertical-align:top;">applications_parent</td><td style="vertical-align:top;">:</td><td><div>/home/vikramahuja/web2py</div></td></tr><tr><td style="font-weight:bold;vertical-align:top;">db_sessions</td><td style="vertical-align:top;">:</td><td><div>set([])</div></td></tr><tr><td style="font-weight:bold;vertical-align:top;">debugging</td><td style="vertical-align:top;">:</td><td><div>False</div></td></tr><tr><td style="font-weight:bold;vertical-align:top;">gluon_parent</td><td style="vertical-align:top;">:</td><td><div>/home/vikramahuja/web2py</div></td></tr><tr><td style="font-weight:bold;vertical-align:top;">is_jython</td><td style="vertical-align:top;">:</td><td><div>False</div></td></tr><tr><td style="font-weight:bold;vertical-align:top;">is_pypy</td><td style="vertical-align:top;">:</td><td><div>False</div></td></tr><tr><td style="font-weight:bold;vertical-align:top;">is_source</td><td style="vertical-align:top;">:</td><td><div>True</div></td></tr><tr><td style="font-weight:bold;vertical-align:top;">local_hosts</td><td style="vertical-align:top;">:</td><td><div><table><tr><td><div>giles-liveweb1</div></td></tr><tr><td><div>::ffff:127.0.0.1</div></td></tr><tr><td><div>::1</div></td></tr><tr><td><div>50.19.109.98</div></td></tr><tr><td><div>localhost</div></td></tr><tr><td><div>127.0.0.1</div></td></tr><tr><td><div>vikramahuja.pythonanywhere.com</div></td></tr></table></div></td></tr><tr><td style="font-weight:bold;vertical-align:top;">web2py_version</td><td style="vertical-align:top;">:</td><td><div>2.7.4-stable+timestamp.2013.10.14.15.16.29</div></td></tr></table></div></td></tr><tr><td style="font-weight:bold;vertical-align:top;">is_https</td><td style="vertical-align:top;">:</td><td><div>True</div></td></tr><tr><td style="font-weight:bold;vertical-align:top;">is_local</td><td style="vertical-align:top;">:</td><td><div>False</div></td></tr><tr><td style="font-weight:bold;vertical-align:top;">is_restful</td><td style="vertical-align:top;">:</td><td><div>False</div></td></tr><tr><td style="font-weight:bold;vertical-align:top;">now</td><td style="vertical-align:top;">:</td><td><div>datetime.datetime(2015, 3, 21, 19, 20, 32, 794257)</div></td></tr><tr><td style="font-weight:bold;vertical-align:top;">raw_args</td><td style="vertical-align:top;">:</td><td><div></div></td></tr><tr><td style="font-weight:bold;vertical-align:top;">raw_extension</td><td style="vertical-align:top;">:</td><td><div>None</div></td></tr><tr><td style="font-weight:bold;vertical-align:top;">url</td><td style="vertical-align:top;">:</td><td><div>/QuestionAnswer/default/all</div></td></tr><tr><td style="font-weight:bold;vertical-align:top;">utcnow</td><td style="vertical-align:top;">:</td><td><div>datetime.datetime(2015, 3, 21, 19, 20, 32, 794271)</div></td></tr><tr><td style="font-weight:bold;vertical-align:top;">uuid</td><td style="vertical-align:top;">:</td><td><div>QuestionAnswer/14.139.82.6.2015-03-21.19-20-32.05ce6c49-2379-4a67-a6e8-4ebee6f657e1</div></td></tr><tr><td style="font-weight:bold;vertical-align:top;">wsgi</td><td style="vertical-align:top;">:</td><td><div>&lt;gluon.main.LazyWSGI object at 0x7f281669d090&gt;</div></td></tr></table></div>'
tRp58
sS'frames'
p59
(lp60
(dp61
S'file'
p62
S'/home/vikramahuja/web2py/gluon/restricted.py'
p63
sS'dump'
p64
(dp65
S'environment'
p66
S"{'A': <class 'gluon.html.A'>, 'ANY_OF': <class 'gluon.validators.ANY_OF'>, 'Auth': <class 'gluon.tools.Auth'>, 'B': <class 'gluon.html.B'>, 'BEAUTIFY': <class 'gluon.html.BEAUTIFY'>, 'BODY': <class 'gluon.html.BODY'>, 'BR': <class 'gluon.html.BR'>, 'BUTTON': <class 'gluon.html.BUTTON'>, 'CAT': <class 'gluon.html.CAT'>, 'CENTER': <class 'gluon.html.CENTER'>, ...}"
p67
sS'ccode'
p68
S'<code object <module> at 0x7f28167d5c30, file "/...s/QuestionAnswer/views/default/all.html", line 1>'
p69
ssS'lnum'
p70
I217
sS'lines'
p71
(dp72
I212
S'    try:'
p73
sI213
S'        if isinstance(code, types.CodeType):'
p74
sI214
S'            ccode = code'
p75
sI215
S'        else:'
p76
sI216
S'            ccode = compile2(code, layer)'
p77
sI217
S'        exec ccode in environment'
p78
sI218
S'    except HTTP:'
p79
sI219
S'        raise'
p80
sI220
S'    except RestrictedError:'
p81
sI221
S'        # do not encapsulate (obfuscate) the original RestrictedError'
p82
ssS'call'
p83
S'(code=\'response.write(\\\'<!DOCTYPE html PUBLIC "-//W3C//D...t</div>\\\\n\\\\t\\\\t</body>\\\\n\\\\t</html>\\\\n\\\', escape=False)\', environment={\'A\': <class \'gluon.html.A\'>, \'ANY_OF\': <class \'gluon.validators.ANY_OF\'>, \'Auth\': <class \'gluon.tools.Auth\'>, \'B\': <class \'gluon.html.B\'>, \'BEAUTIFY\': <class \'gluon.html.BEAUTIFY\'>, \'BODY\': <class \'gluon.html.BODY\'>, \'BR\': <class \'gluon.html.BR\'>, \'BUTTON\': <class \'gluon.html.BUTTON\'>, \'CAT\': <class \'gluon.html.CAT\'>, \'CENTER\': <class \'gluon.html.CENTER\'>, ...}, layer=\'/home/vikramahuja/web2py/applications/QuestionAnswer/views/default/all.html\')'
p84
sS'func'
p85
S'restricted'
p86
sa(dp87
g62
S'/home/vikramahuja/web2py/applications/QuestionAnswer/views/default/all.html'
p88
sg64
(dp89
S'k'
S'undefined'
p90
sS'bb'
p91
g90
ssg70
I38
sg71
(dp92
I32
S'response.write(\'\\n\\t\\t\\t<div id="templatemo_title_section">\\n\\n\\t\\t\\t\\t<h1>QUESTION&ANSWER</h1>\\n\\n\\t\\t\\t\\tA basic questions-answers portal implementation</div>\\n\\n\\t\\t</div> <!-- end of templatemo header panel -->\\n\\t\\t<div id="templatemo_menu_panel">\\n\\t\\t\\t<div id="templatemo_menu_section">\\n\\n\\t\\t\\t\\t\', escape=False)'
p93
sI33
S"response.write(MENU(response.menu,_class='web2py-menu'))"
p94
sI34
S'response.write(\' \\n\\t\\t\\t</div>\\n\\t\\t</div> <!-- end of menu -->\\n\\n\\t\\t<div id="templatemo_content_container">\\n\\t\\t\\t<div id="templatemo_content">\\n\\t\\t\\t\\t<div id="templatemo_content_left">\\n\\t\\t\\t\\t\\t\', escape=False)'
p95
sI35
S"response.write('\\n\\n<h4>RECENT QUESTIONS</h4></br></br>\\n<ol>', escape=False)"
p96
sI36
S'for i in result:'
p97
sI37
S"    response.write('\\n\\t', escape=False)"
p98
sI38
S'    bb=db((db.ratings.id>0)&(db.ratings.postid==i.id)).select(db.ratings.rating)'
p99
sI39
S"    response.write('\\n\\n\\t', escape=False)"
p100
sI40
S'    ss=db((db.answer.id>0)&(db.answer.answer_id==i.id)).select(db.answer.answer)'
p101
sI41
S'    response.write(\'\\n\\n\\n\\n\\n\\n\\t\\t<div class="post">\\n\\t\\t\\t<div class="postdate"> <div class="month"></div></div>\\n\\t\\t\\t\\n\\n\\t\\t\\t<div class="postbody">\\n\\t\\t\\t\\t<h2>\', escape=False)'
p102
sI42
S"    response.write((A(i.title, _href=URL('question', args=i.id))))"
p103
sI43
S'    response.write(\'</h2>\\n\\n\\t\\t\\t\\t<div class="posttext">\\n\\n\\n\\t\\t\\t\\t\\t\', escape=False)'
p104
sI44
S'    if auth.user:'
p105
sI45
S"        response.write('\\n\\t\\t\\t\\t\\t', escape=False)"
p106
sI46
S'        tim=db(db.admins.id>0).select()'
p107
sI47
S"        response.write('\\n\\t\\t\\t\\t\\t', escape=False)"
p108
sI48
S'        for j in tim:'
p109
sI29
S'try:'
p110
sI30
S"    response.write(auth.navbar(action=URL('default','user')))"
p111
sI31
S'except:pass'
p112
ssg83
S'()'
p113
sg85
S'<module>'
p114
sa(dp115
g62
S'/home/vikramahuja/web2py/gluon/dal.py'
p116
sg64
(dp117
S'self'
p118
S'<DAL uri="sqlite://storage.sqlite">'
p119
sS'global ogetattr'
p120
S"<slot wrapper '__getattribute__' of 'object' objects>"
p121
sS'key'
p122
S"'ratings'"
p123
ssg70
I8041
sg71
(dp124
I8036
S'    def __getattr__(self, key):'
p125
sI8037
S"        if ogetattr(self,'_lazy_tables') and \\"
p126
sI8038
S"                key in ogetattr(self,'_LAZY_TABLES'):"
p127
sI8039
S'            tablename, fields, args = self._LAZY_TABLES.pop(key)'
p128
sI8040
S'            return self.lazy_define_table(tablename,*fields,**args)'
p129
sI8041
S'        return ogetattr(self, key)'
p130
sI8042
S''
sI8043
S'    def __setitem__(self, key, value):'
p131
sI8044
S'        osetattr(self, str(key), value)'
p132
sI8045
S''
ssg83
S'(self=<DAL uri="sqlite://storage.sqlite">, key=\'ratings\')'
p133
sg85
S'__getattr__'
p134
sasS'pyver'
p135
S'Python 2.7.6: /usr/local/bin/uwsgi (prefix: /usr)'
p136
sS'session'
p137
g57
(S's\x88\t\x00\x00<div><table><tr><td style="font-weight:bold;vertical-align:top;">auth</td><td style="vertical-align:top;">:</td><td><div><table><tr><td style="font-weight:bold;vertical-align:top;">expiration</td><td style="vertical-align:top;">:</td><td><div>3600</div></td></tr><tr><td style="font-weight:bold;vertical-align:top;">hmac_key</td><td style="vertical-align:top;">:</td><td><div>9e627c41-50a4-483f-8abc-b1e6bfa202cb</div></td></tr><tr><td style="font-weight:bold;vertical-align:top;">last_visit</td><td style="vertical-align:top;">:</td><td><div>datetime.datetime(2015, 3, 21, 19, 20, 15, 564002)</div></td></tr><tr><td style="font-weight:bold;vertical-align:top;">user</td><td style="vertical-align:top;">:</td><td><div><table><tr><td style="font-weight:bold;vertical-align:top;">email</td><td style="vertical-align:top;">:</td><td><div>vikramahuja1001@gmail.com</div></td></tr><tr><td style="font-weight:bold;vertical-align:top;">first_name</td><td style="vertical-align:top;">:</td><td><div>Vikram</div></td></tr><tr><td style="font-weight:bold;vertical-align:top;">id</td><td style="vertical-align:top;">:</td><td><div>4L</div></td></tr><tr><td style="font-weight:bold;vertical-align:top;">last_name</td><td style="vertical-align:top;">:</td><td><div>Ahuja</div></td></tr><tr><td style="font-weight:bold;vertical-align:top;">registration_id</td><td style="vertical-align:top;">:</td><td><div></div></td></tr><tr><td style="font-weight:bold;vertical-align:top;">registration_key</td><td style="vertical-align:top;">:</td><td><div></div></td></tr><tr><td style="font-weight:bold;vertical-align:top;">reset_password_key</td><td style="vertical-align:top;">:</td><td><div></div></td></tr></table></div></td></tr><tr><td style="font-weight:bold;vertical-align:top;">user_groups</td><td style="vertical-align:top;">:</td><td><div><table><tr><td style="font-weight:bold;vertical-align:top;">4</td><td style="vertical-align:top;">:</td><td><div>user_4</div></td></tr></table></div></td></tr></table></div></td></tr><tr><td style="font-weight:bold;vertical-align:top;">flash</td><td style="vertical-align:top;">:</td><td><div>None</div></td></tr><tr><td style="font-weight:bold;vertical-align:top;">last_orderby</td><td style="vertical-align:top;">:</td><td><div>None</div></td></tr><tr><td style="font-weight:bold;vertical-align:top;">last_query</td><td style="vertical-align:top;">:</td><td><div>db.auth_user.id&gt;2</div></td></tr></table></div>'
tRp138
sS'etype'
p139
S"<type 'exceptions.AttributeError'>"
p140
sS'date'
p141
S'Sat Mar 21 19:20:32 2015'
p142
sS'response'
p143
g57
(S'sH!\x00\x00<div><table><tr><td style="font-weight:bold;vertical-align:top;">body</td><td style="vertical-align:top;">:</td><td><div>&lt;cStringIO.StringO object at 0x7f2815a05260&gt;</div></td></tr><tr><td style="font-weight:bold;vertical-align:top;">cookies</td><td style="vertical-align:top;">:</td><td><div><table><tr><td style="font-weight:bold;vertical-align:top;">session_id_questionanswer</td><td style="vertical-align:top;">:</td><td><div>14.139.82.6-4811bb23-dcd2-4b8d-ab15-e5a7d7181d9e<table><tr><td style="font-weight:bold;vertical-align:top;">comment</td><td style="vertical-align:top;">:</td><td><div></div></td></tr><tr><td style="font-weight:bold;vertical-align:top;">domain</td><td style="vertical-align:top;">:</td><td><div></div></td></tr><tr><td style="font-weight:bold;vertical-align:top;">expires</td><td style="vertical-align:top;">:</td><td><div></div></td></tr><tr><td style="font-weight:bold;vertical-align:top;">httponly</td><td style="vertical-align:top;">:</td><td><div></div></td></tr><tr><td style="font-weight:bold;vertical-align:top;">max-age</td><td style="vertical-align:top;">:</td><td><div></div></td></tr><tr><td style="font-weight:bold;vertical-align:top;">path</td><td style="vertical-align:top;">:</td><td><div>/</div></td></tr><tr><td style="font-weight:bold;vertical-align:top;">secure</td><td style="vertical-align:top;">:</td><td><div></div></td></tr><tr><td style="font-weight:bold;vertical-align:top;">version</td><td style="vertical-align:top;">:</td><td><div></div></td></tr></table></div></td></tr></table></div></td></tr><tr><td style="font-weight:bold;vertical-align:top;">delimiters</td><td style="vertical-align:top;">:</td><td><div><table><tr><td><div>{{</div></td></tr><tr><td><div>}}</div></td></tr></table></div></td></tr><tr><td style="font-weight:bold;vertical-align:top;">files</td><td style="vertical-align:top;">:</td><td><div><table><tr><td><div>/QuestionAnswer/static/js/jquery.js</div></td></tr><tr><td><div>/QuestionAnswer/static/css/calendar.css</div></td></tr><tr><td><div>/QuestionAnswer/static/js/calendar.js</div></td></tr><tr><td><div>/QuestionAnswer/static/js/web2py.js</div></td></tr><tr><td><div>/QuestionAnswer/static/plugin_rating/jquery.rating.css</div></td></tr><tr><td><div>/QuestionAnswer/static/plugin_rating/jquery.rating.js</div></td></tr><tr><td><div>/QuestionAnswer/static/oldblog/tabcontent.css</div></td></tr><tr><td><div>/QuestionAnswer/static/oldblog/templatemo_style.css</div></td></tr><tr><td><div>/QuestionAnswer/static/plugin_layouts/superfish.js</div></td></tr><tr><td><div>/QuestionAnswer/static/oldblog/tabcontent.js</div></td></tr><tr><td><div>/QuestionAnswer/static/jquery.min.js</div></td></tr></table></div></td></tr><tr><td style="font-weight:bold;vertical-align:top;">flash</td><td style="vertical-align:top;">:</td><td><div></div></td></tr><tr><td style="font-weight:bold;vertical-align:top;">generic_patterns</td><td style="vertical-align:top;">:</td><td><div><table></table></div></td></tr><tr><td style="font-weight:bold;vertical-align:top;">google_analytics_id</td><td style="vertical-align:top;">:</td><td><div>None</div></td></tr><tr><td style="font-weight:bold;vertical-align:top;">headers</td><td style="vertical-align:top;">:</td><td><div><table><tr><td style="font-weight:bold;vertical-align:top;">X-Powered-By</td><td style="vertical-align:top;">:</td><td><div>web2py</div></td></tr></table></div></td></tr><tr><td style="font-weight:bold;vertical-align:top;">menu</td><td style="vertical-align:top;">:</td><td><div><table><tr><td><div><table><tr><td><div>Home</div></td></tr><tr><td><div>False</div></td></tr><tr><td><div>/QuestionAnswer/default/index</div></td></tr><tr><td><div><table></table></div></td></tr></table></div></td></tr><tr><td><div><table><tr><td><div>Wall</div></td></tr><tr><td><div>False</div></td></tr><tr><td><div>/QuestionAnswer/default/mypage</div></td></tr><tr><td><div><table></table></div></td></tr></table></div></td></tr><tr><td><div><table><tr><td><div>Messages</div></td></tr><tr><td><div>False</div></td></tr><tr><td><div>/QuestionAnswer/default/message</div></td></tr><tr><td><div><table></table></div></td></tr></table></div></td></tr><tr><td><div><table><tr><td><div>Questions by Topic</div></td></tr><tr><td><div>False</div></td></tr><tr><td><div>/QuestionAnswer/default/topicquestion</div></td></tr><tr><td><div><table></table></div></td></tr></table></div></td></tr><tr><td><div><table><tr><td><div>Admin Controls</div></td></tr><tr><td><div>False</div></td></tr><tr><td><div>/QuestionAnswer/default/index1</div></td></tr><tr><td><div><table></table></div></td></tr></table></div></td></tr></table></div></td></tr><tr><td style="font-weight:bold;vertical-align:top;">meta</td><td style="vertical-align:top;">:</td><td><div><table><tr><td style="font-weight:bold;vertical-align:top;">author</td><td style="vertical-align:top;">:</td><td><div>Your Name &lt;you@example.com&gt;</div></td></tr><tr><td style="font-weight:bold;vertical-align:top;">description</td><td style="vertical-align:top;">:</td><td><div>a cool new app</div></td></tr><tr><td style="font-weight:bold;vertical-align:top;">generator</td><td style="vertical-align:top;">:</td><td><div>Web2py Web Framework</div></td></tr><tr><td style="font-weight:bold;vertical-align:top;">keywords</td><td style="vertical-align:top;">:</td><td><div>web2py, python, framework</div></td></tr></table></div></td></tr><tr><td style="font-weight:bold;vertical-align:top;">models_to_run</td><td style="vertical-align:top;">:</td><td><div><table><tr><td><div>^\\w+\\.py$</div></td></tr><tr><td><div>^default/\\w+\\.py$</div></td></tr><tr><td><div>^default/all/\\w+\\.py$</div></td></tr></table></div></td></tr><tr><td style="font-weight:bold;vertical-align:top;">postprocessing</td><td style="vertical-align:top;">:</td><td><div><table></table></div></td></tr><tr><td style="font-weight:bold;vertical-align:top;">session_client</td><td style="vertical-align:top;">:</td><td><div>14.139.82.6</div></td></tr><tr><td style="font-weight:bold;vertical-align:top;">session_cookie_compression_level</td><td style="vertical-align:top;">:</td><td><div>None</div></td></tr><tr><td style="font-weight:bold;vertical-align:top;">session_cookie_expires</td><td style="vertical-align:top;">:</td><td><div>None</div></td></tr><tr><td style="font-weight:bold;vertical-align:top;">session_cookie_key</td><td style="vertical-align:top;">:</td><td><div>None</div></td></tr><tr><td style="font-weight:bold;vertical-align:top;">session_data_name</td><td style="vertical-align:top;">:</td><td><div>session_data_questionanswer</div></td></tr><tr><td style="font-weight:bold;vertical-align:top;">session_file</td><td style="vertical-align:top;">:</td><td><div>&lt;open file &#x27;/home/vikramahuja/web2py/applications/QuestionAnswer/sessions/14.139.82.6-4811bb23-dcd2-4b8d-ab15-e5a7d7181d9e&#x27;, mode &#x27;rb+&#x27; at 0x7f28165a5540&gt;</div></td></tr><tr><td style="font-weight:bold;vertical-align:top;">session_filename</td><td style="vertical-align:top;">:</td><td><div>/home/vikramahuja/web2py/applications/QuestionAnswer/sessions/14.139.82.6-4811bb23-dcd2-4b8d-ab15-e5a7d7181d9e</div></td></tr><tr><td style="font-weight:bold;vertical-align:top;">session_hash</td><td style="vertical-align:top;">:</td><td><div>eaedf5996f8fb776505ca86d1b36a715</div></td></tr><tr><td style="font-weight:bold;vertical-align:top;">session_id</td><td style="vertical-align:top;">:</td><td><div>14.139.82.6-4811bb23-dcd2-4b8d-ab15-e5a7d7181d9e</div></td></tr><tr><td style="font-weight:bold;vertical-align:top;">session_id_name</td><td style="vertical-align:top;">:</td><td><div>session_id_questionanswer</div></td></tr><tr><td style="font-weight:bold;vertical-align:top;">session_locked</td><td style="vertical-align:top;">:</td><td><div>True</div></td></tr><tr><td style="font-weight:bold;vertical-align:top;">session_masterapp</td><td style="vertical-align:top;">:</td><td><div>QuestionAnswer</div></td></tr><tr><td style="font-weight:bold;vertical-align:top;">session_new</td><td style="vertical-align:top;">:</td><td><div>False</div></td></tr><tr><td style="font-weight:bold;vertical-align:top;">session_storage_type</td><td style="vertical-align:top;">:</td><td><div>file</div></td></tr><tr><td style="font-weight:bold;vertical-align:top;">status</td><td style="vertical-align:top;">:</td><td><div>200</div></td></tr><tr><td style="font-weight:bold;vertical-align:top;">view</td><td style="vertical-align:top;">:</td><td><div>default/all.html</div></td></tr></table></div>'
tRp144
sS'locals'
p145
(dp146
S'self'
p147
S'<DAL uri="sqlite://storage.sqlite">'
p148
sS'key'
p149
S"'ratings'"
p150
sssS'traceback'
p151
S'Traceback (most recent call last):\n  File "/home/vikramahuja/web2py/gluon/restricted.py", line 217, in restricted\n    exec ccode in environment\n  File "/home/vikramahuja/web2py/applications/QuestionAnswer/views/default/all.html", line 38, in <module>\n    {{for k in bb:}}\n  File "/home/vikramahuja/web2py/gluon/dal.py", line 8041, in __getattr__\n    return ogetattr(self, key)\nAttributeError: \'DAL\' object has no attribute \'ratings\'\n'
p152
s.